

Microchip MPLAB XC8 Assembler V2.41 build 20230208172133 
                                                                                               Tue Apr 18 10:16:15 2023

Microchip MPLAB XC8 C Compiler v2.41 (Free license) build 20230208172133 Og1 
     1                           	processor	18F47Q10
     2                           	fnconf	rparam,??,?,0
     3                           	pagewidth 120
     4                           	opt	flic
     5                           	psect	idataCOMRAM,global,class=CODE,delta=1,noexec
     6                           	psect	mediumconst,global,reloc=2,class=MEDIUMCONST,delta=1,noexec
     7                           	psect	cinit,global,reloc=2,class=CODE,delta=1
     8                           	psect	bssCOMRAM,global,class=COMRAM,space=1,delta=1,lowdata,noexec
     9                           	psect	dataCOMRAM,global,class=COMRAM,space=1,delta=1,lowdata,noexec
    10                           	psect	cstackCOMRAM,global,class=COMRAM,space=1,delta=1,lowdata,noexec
    11                           	psect	text0,global,reloc=2,class=CODE,delta=1
    12                           	psect	text1,global,reloc=2,class=CODE,delta=1,group=3
    13                           	psect	text2,global,reloc=2,class=CODE,delta=1,group=1
    14                           	psect	text3,global,reloc=2,class=CODE,delta=1,group=1
    15                           	psect	text4,global,reloc=2,class=CODE,delta=1,group=3
    16                           	psect	text5,global,reloc=2,class=CODE,delta=1
    17                           	psect	text6,global,reloc=2,class=CODE,delta=1
    18                           	psect	text7,global,reloc=2,class=CODE,delta=1
    19                           	psect	text8,global,reloc=2,class=CODE,delta=1
    20                           	psect	text9,global,reloc=2,class=CODE,delta=1
    21                           	psect	text10,global,reloc=2,class=CODE,delta=1
    22                           	psect	text11,global,reloc=2,class=CODE,delta=1
    23                           	psect	text12,global,reloc=2,class=CODE,delta=1
    24                           	psect	text13,global,reloc=2,class=CODE,delta=1
    25                           	psect	text14,global,reloc=2,class=CODE,delta=1
    26                           	psect	text15,global,reloc=2,class=CODE,delta=1
    27                           	psect	text16,global,reloc=2,class=CODE,delta=1
    28                           	psect	text17,global,reloc=2,class=CODE,delta=1
    29                           	psect	text18,global,reloc=2,class=CODE,delta=1
    30                           	psect	text19,global,reloc=2,class=CODE,delta=1
    31                           	psect	text20,global,reloc=2,class=CODE,delta=1
    32                           	psect	text21,global,reloc=2,class=CODE,delta=1
    33                           	psect	intcode,global,reloc=2,class=CODE,delta=1
    34                           	psect	text23,global,reloc=2,class=CODE,delta=1
    35                           	psect	text24,global,reloc=2,class=CODE,delta=1
    36                           	psect	text25,global,reloc=2,class=CODE,delta=1
    37                           	psect	text26,global,reloc=2,class=CODE,delta=1
    38                           	psect	intsave_regs,global,class=BIGRAM,space=1,delta=1,noexec
    39                           	psect	text27,global,reloc=2,class=CODE,delta=1
    40                           	psect	rparam,global,class=COMRAM,space=1,delta=1,noexec
    41                           	psect	temp,global,ovrld,common,class=COMRAM,space=1,delta=1
    42                           	psect	idloc,global,abs,ovrld,class=IDLOC,space=5,delta=1,noexec
    43                           	psect	config,global,abs,ovrld,class=CONFIG,space=4,delta=1,noexec
    44   000000                     
    45                           ; Generated 30/12/2022 GMT
    46                           ; 
    47                           ; Copyright © 2022, Microchip Technology Inc. and its subsidiaries ("Microchip")
    48                           ; All rights reserved.
    49                           ; 
    50                           ; This software is developed by Microchip Technology Inc. and its subsidiaries ("Microch
      +                          ip").
    51                           ; 
    52                           ; Redistribution and use in source and binary forms, with or without modification, are
    53                           ; permitted provided that the following conditions are met:
    54                           ; 
    55                           ;     1. Redistributions of source code must retain the above copyright notice, this lis
      +                          t of
    56                           ;        conditions and the following disclaimer.
    57                           ; 
    58                           ;     2. Redistributions in binary form must reproduce the above copyright notice, this 
      +                          list
    59                           ;        of conditions and the following disclaimer in the documentation and/or other
    60                           ;        materials provided with the distribution. Publication is not required when
    61                           ;        this file is used in an embedded application.
    62                           ; 
    63                           ;     3. Microchip's name may not be used to endorse or promote products derived from th
      +                          is
    64                           ;        software without specific prior written permission.
    65                           ; 
    66                           ; THIS SOFTWARE IS PROVIDED BY MICROCHIP "AS IS" AND ANY EXPRESS OR IMPLIED WARRANTIES,
    67                           ; INCLUDING, BUT NOT LIMITED TO, THE IMPLIED WARRANTIES OF MERCHANTABILITY AND FITNESS F
      +                          OR
    68                           ; PURPOSE ARE DISCLAIMED.  IN NO EVENT SHALL MICROCHIP BE LIABLE FOR ANY DIRECT, INDIREC
      +                          T,
    69                           ; INCIDENTAL, SPECIAL, EXEMPLARY, OR CONSEQUENTIAL DAMAGES (INCLUDING BUT NOT LIMITED TO
    70                           ; PROCUREMENT OF SUBSTITUTE GOODS OR SERVICES; LOSS OF USE, DATA OR PROFITS; OR BUSINESS
    71                           ; INTERRUPTION) HOWSOEVER CAUSED AND ON ANY THEORY OF LIABILITY, WHETHER IN CONTRACT, ST
      +                          RICT
    72                           ; LIABILITY, OR TORT (INCLUDING NEGLIGENCE OR OTHERWISE) ARISING IN ANY WAY OUT OF THE U
      +                          SE OF
    73                           ; THIS SOFTWARE, EVEN IF ADVISED OF THE POSSIBILITY OF SUCH DAMAGE.
    74                           ; 
    75                           ; 
    76                           ; Code-generator required, PIC18F47Q10 Definitions
    77                           ; 
    78                           ; SFR Addresses
    79   000000                     
    80 ;; Function _EUSART2_Deinitialize is unused but had its address taken
    81   000000                     
    82 ;; Function _EUSART2_TransmitEnable is unused but had its address taken
    83   000000                     
    84 ;; Function _EUSART2_TransmitDisable is unused but had its address taken
    85   000000                     
    86 ;; Function _EUSART2_AutoBaudSet is unused but had its address taken
    87   000000                     
    88 ;; Function _EUSART2_AutoBaudQuery is unused but had its address taken
    89   000000                     
    90 ;; Function _EUSART2_IsRxReady is unused but had its address taken
    91   000000                     
    92 ;; Function _EUSART2_IsTxDone is unused but had its address taken
    93   000000                     
    94 ;; Function _EUSART2_ErrorGet is unused but had its address taken
    95   000000                     
    96 ;; Function _EUSART2_Read is unused but had its address taken
    97   000000                     
    98 ;; Function _EUSART2_DefaultFramingErrorCallback is unused but had its address taken
    99   000000                     
   100 ;; Function _EUSART2_DefaultOverrunErrorCallback is unused but had its address taken
   101   000000                     
   102 ;; Function _INT0_DefaultInterruptHandler is unused but had its address taken
   103   000000                     
   104 ;; Function _INT1_DefaultInterruptHandler is unused but had its address taken
   105   000000                     
   106 ;; Function _INT2_DefaultInterruptHandler is unused but had its address taken
   107   000000                     
   108                           	psect	idataCOMRAM
   109   0105AC                     __pidataCOMRAM:
   110                           	callstack 0
   111                           
   112                           ;initializer for _wait4ledCnt
   113   0105AC  03E8               	dw	1000
   114                           
   115                           	psect	mediumconst
   116   00FE18                     __pmediumconst:
   117                           	callstack 0
   118   00FE18  00                 	db	0
   119   00FE19                     _UART2:
   120                           	callstack 0
   121   00FE19  9E                 	db	low _EUSART2_Initialize
   122   00FE1A  03                 	db	high _EUSART2_Initialize
   123   00FE1B  01                 	db	low (_EUSART2_Initialize shr (0+16))
   124   00FE1C  00                 	db	0
   125   00FE1D  00                 	db	0
   126   00FE1E  00                 	db	0
   127   00FE1F  00                 	db	0
   128   00FE20  00                 	db	0
   129   00FE21  00                 	db	0
   130   00FE22  9E                 	db	low _EUSART2_Write
   131   00FE23  05                 	db	high _EUSART2_Write
   132   00FE24  01                 	db	low (_EUSART2_Write shr (0+16))
   133   00FE25  00                 	db	0
   134   00FE26  00                 	db	0
   135   00FE27  00                 	db	0
   136   00FE28  0C                 	db	low _EUSART2_IsTxReady
   137   00FE29  04                 	db	high _EUSART2_IsTxReady
   138   00FE2A  01                 	db	low (_EUSART2_IsTxReady shr (0+16))
   139   00FE2B  00                 	db	0
   140   00FE2C  00                 	db	0
   141   00FE2D  00                 	db	0
   142   00FE2E  00                 	db	0
   143   00FE2F  00                 	db	0
   144   00FE30  00                 	db	0
   145   00FE31  00                 	db	0
   146   00FE32  00                 	db	0
   147   00FE33  00                 	db	0
   148   00FE34  00                 	db	0
   149   00FE35  00                 	db	0
   150   00FE36  00                 	db	0
   151   00FE37  00                 	db	0
   152   00FE38  00                 	db	0
   153   00FE39  00                 	db	0
   154   00FE3A  00                 	db	0
   155   00FE3B  00                 	db	0
   156   00FE3C  00                 	db	0
   157   00FE3D  00                 	db	0
   158   00FE3E  00                 	db	0
   159   00FE3F  00                 	db	0
   160   00FE40  00                 	db	0
   161   00FE41  00                 	db	0
   162   00FE42  00                 	db	0
   163   00FE43  00                 	db	0
   164   00FE44  00                 	db	0
   165   00FE45  00                 	db	0
   166   00FE46  00                 	db	0
   167   00FE47  00                 	db	0
   168   00FE48  00                 	db	0
   169   00FE49  00                 	db	0
   170   00FE4A  00                 	db	0
   171   00FE4B  00                 	db	0
   172   00FE4C  00                 	db	0
   173   00FE4D  00                 	db	0
   174   00FE4E  00                 	db	0
   175   00FE4F  00                 	db	0
   176   00FE50  00                 	db	0
   177   00FE51  00                 	db	0
   178   00FE52  00                 	db	0
   179   00FE53  00                 	db	0
   180   00FE54  00                 	db	0
   181   00FE55  A0                 	db	low _EUSART2_FramingErrorCallbackRegister
   182   00FE56  04                 	db	high _EUSART2_FramingErrorCallbackRegister
   183   00FE57  01                 	db	low (_EUSART2_FramingErrorCallbackRegister shr (0+16))
   184   00FE58  7E                 	db	low _EUSART2_OverrunErrorCallbackRegister
   185   00FE59  04                 	db	high _EUSART2_OverrunErrorCallbackRegister
   186   00FE5A  01                 	db	low (_EUSART2_OverrunErrorCallbackRegister shr (0+16))
   187   00FE5B  00                 	db	0
   188   00FE5C  00                 	db	0
   189   00FE5D  00                 	db	0
   190   00FE5E  00                 	db	0
   191   00FE5F  00                 	db	0
   192   00FE60  00                 	db	0
   193   00FE61                     __end_of_UART2:
   194                           	callstack 0
   195   000000                     _OSCTUNE	set	3800
   196   000000                     _OSCFRQ	set	3801
   197   000000                     _TX2REG	set	3733
   198   000000                     _SP2BRGH	set	3735
   199   000000                     _TX2STA	set	3737
   200   000000                     _HLVDCON0	set	3882
   201   000000                     _HLVDCON1	set	3883
   202   000000                     _IOCEF	set	3874
   203   000000                     _IOCEN	set	3875
   204   000000                     _IOCEP	set	3876
   205   000000                     _IOCCF	set	3861
   206   000000                     _IOCCN	set	3862
   207   000000                     _IOCCP	set	3863
   208   000000                     _IOCBF	set	3853
   209   000000                     _IOCBN	set	3854
   210   000000                     _IOCBP	set	3855
   211   000000                     _INLVLE	set	3877
   212   000000                     _INLVLD	set	3869
   213   000000                     _INLVLC	set	3864
   214   000000                     _INLVLB	set	3856
   215   000000                     _SLRCONE	set	3878
   216   000000                     _SLRCOND	set	3870
   217   000000                     _SLRCONC	set	3865
   218   000000                     _SLRCONB	set	3857
   219   000000                     _ODCONE	set	3879
   220   000000                     _ODCOND	set	3871
   221   000000                     _ODCONC	set	3866
   222   000000                     _ODCONB	set	3858
   223   000000                     _WPUE	set	3880
   224   000000                     _WPUD	set	3872
   225   000000                     _WPUC	set	3867
   226   000000                     _WPUB	set	3859
   227   000000                     _ANSELE	set	3881
   228   000000                     _ANSELD	set	3873
   229   000000                     _ANSELC	set	3868
   230   000000                     _ANSELB	set	3860
   231   000000                     _BAUD2CONbits	set	3738
   232   000000                     _TX2STAbits	set	3737
   233   000000                     _RC2STAbits	set	3736
   234   000000                     _HLVDCON0bits	set	3882
   235   000000                     _LATEbits	set	3974
   236   000000                     _RX2PPS	set	3720
   237   000000                     _INLVLA	set	3848
   238   000000                     _SLRCONA	set	3849
   239   000000                     _ODCONA	set	3850
   240   000000                     _WPUA	set	3851
   241   000000                     _ANSELA	set	3852
   242   000000                     _LATA	set	3970
   243   000000                     _INTCONbits	set	4082
   244   000000                     _TRISE	set	3979
   245   000000                     _TRISD	set	3978
   246   000000                     _TRISC	set	3977
   247   000000                     _TRISB	set	3976
   248   000000                     _TRISA	set	3975
   249   000000                     _LATE	set	3974
   250   000000                     _LATD	set	3973
   251   000000                     _LATC	set	3972
   252   000000                     _LATB	set	3971
   253   000000                     _RC2REG	set	3732
   254   000000                     _SP2BRGL	set	3734
   255   000000                     _RC2STA	set	3736
   256   000000                     _BAUD2CON	set	3738
   257   000000                     _PIE2bits	set	3775
   258   000000                     _PIR2bits	set	3783
   259   000000                     _RD0PPS	set	3834
   260   000000                     _IOCAF	set	3845
   261   000000                     _IOCAN	set	3846
   262   000000                     _IOCAP	set	3847
   263   000000                     _OSCCON1	set	3795
   264   000000                     _PIR3bits	set	3784
   265   000000                     _PIR0bits	set	3781
   266   000000                     _PIE0bits	set	3773
   267   000000                     _OSCCON3	set	3797
   268   000000                     _OSCEN	set	3799
   269   00FE61                     STR_6:
   270   00FE61  49                 	db	73	;'I'
   271   00FE62  6E                 	db	110	;'n'
   272   00FE63  63                 	db	99	;'c'
   273   00FE64  72                 	db	114	;'r'
   274   00FE65  65                 	db	101	;'e'
   275   00FE66  61                 	db	97	;'a'
   276   00FE67  73                 	db	115	;'s'
   277   00FE68  65                 	db	101	;'e'
   278   00FE69  20                 	db	32
   279   00FE6A  74                 	db	116	;'t'
   280   00FE6B  68                 	db	104	;'h'
   281   00FE6C  65                 	db	101	;'e'
   282   00FE6D  20                 	db	32
   283   00FE6E  73                 	db	115	;'s'
   284   00FE6F  75                 	db	117	;'u'
   285   00FE70  70                 	db	112	;'p'
   286   00FE71  70                 	db	112	;'p'
   287   00FE72  6C                 	db	108	;'l'
   288   00FE73  79                 	db	121	;'y'
   289   00FE74  20                 	db	32
   290   00FE75  76                 	db	118	;'v'
   291   00FE76  6F                 	db	111	;'o'
   292   00FE77  6C                 	db	108	;'l'
   293   00FE78  74                 	db	116	;'t'
   294   00FE79  61                 	db	97	;'a'
   295   00FE7A  67                 	db	103	;'g'
   296   00FE7B  65                 	db	101	;'e'
   297   00FE7C  20                 	db	32
   298   00FE7D  74                 	db	116	;'t'
   299   00FE7E  6F                 	db	111	;'o'
   300   00FE7F  20                 	db	32
   301   00FE80  64                 	db	100	;'d'
   302   00FE81  65                 	db	101	;'e'
   303   00FE82  74                 	db	116	;'t'
   304   00FE83  65                 	db	101	;'e'
   305   00FE84  63                 	db	99	;'c'
   306   00FE85  74                 	db	116	;'t'
   307   00FE86  20                 	db	32
   308   00FE87  69                 	db	105	;'i'
   309   00FE88  66                 	db	102	;'f'
   310   00FE89  20                 	db	32
   311   00FE8A  74                 	db	116	;'t'
   312   00FE8B  68                 	db	104	;'h'
   313   00FE8C  65                 	db	101	;'e'
   314   00FE8D  20                 	db	32
   315   00FE8E  73                 	db	115	;'s'
   316   00FE8F  75                 	db	117	;'u'
   317   00FE90  70                 	db	112	;'p'
   318   00FE91  70                 	db	112	;'p'
   319   00FE92  6C                 	db	108	;'l'
   320   00FE93  79                 	db	121	;'y'
   321   00FE94  20                 	db	32
   322   00FE95  76                 	db	118	;'v'
   323   00FE96  6F                 	db	111	;'o'
   324   00FE97  6C                 	db	108	;'l'
   325   00FE98  74                 	db	116	;'t'
   326   00FE99  61                 	db	97	;'a'
   327   00FE9A  67                 	db	103	;'g'
   328   00FE9B  65                 	db	101	;'e'
   329   00FE9C  20                 	db	32
   330   00FE9D  69                 	db	105	;'i'
   331   00FE9E  73                 	db	115	;'s'
   332   00FE9F  20                 	db	32
   333   00FEA0  67                 	db	103	;'g'
   334   00FEA1  72                 	db	114	;'r'
   335   00FEA2  65                 	db	101	;'e'
   336   00FEA3  61                 	db	97	;'a'
   337   00FEA4  74                 	db	116	;'t'
   338   00FEA5  65                 	db	101	;'e'
   339   00FEA6  72                 	db	114	;'r'
   340   00FEA7  20                 	db	32
   341   00FEA8  74                 	db	116	;'t'
   342   00FEA9  68                 	db	104	;'h'
   343   00FEAA  61                 	db	97	;'a'
   344   00FEAB  6E                 	db	110	;'n'
   345   00FEAC  20                 	db	32
   346   00FEAD  74                 	db	116	;'t'
   347   00FEAE  68                 	db	104	;'h'
   348   00FEAF  65                 	db	101	;'e'
   349   00FEB0  20                 	db	32
   350   00FEB1  74                 	db	116	;'t'
   351   00FEB2  72                 	db	114	;'r'
   352   00FEB3  69                 	db	105	;'i'
   353   00FEB4  70                 	db	112	;'p'
   354   00FEB5  20                 	db	32
   355   00FEB6  70                 	db	112	;'p'
   356   00FEB7  6F                 	db	111	;'o'
   357   00FEB8  69                 	db	105	;'i'
   358   00FEB9  6E                 	db	110	;'n'
   359   00FEBA  74                 	db	116	;'t'
   360   00FEBB  2E                 	db	46
   361   00FEBC  0D                 	db	13
   362   00FEBD  0A                 	db	10
   363   00FEBE  0A                 	db	10
   364   00FEBF  0A                 	db	10
   365   00FEC0  0A                 	db	10
   366   00FEC1  00                 	db	0
   367   00FEC2                     STR_3:
   368   00FEC2  44                 	db	68	;'D'
   369   00FEC3  65                 	db	101	;'e'
   370   00FEC4  63                 	db	99	;'c'
   371   00FEC5  72                 	db	114	;'r'
   372   00FEC6  65                 	db	101	;'e'
   373   00FEC7  61                 	db	97	;'a'
   374   00FEC8  73                 	db	115	;'s'
   375   00FEC9  65                 	db	101	;'e'
   376   00FECA  20                 	db	32
   377   00FECB  74                 	db	116	;'t'
   378   00FECC  68                 	db	104	;'h'
   379   00FECD  65                 	db	101	;'e'
   380   00FECE  20                 	db	32
   381   00FECF  73                 	db	115	;'s'
   382   00FED0  75                 	db	117	;'u'
   383   00FED1  70                 	db	112	;'p'
   384   00FED2  70                 	db	112	;'p'
   385   00FED3  6C                 	db	108	;'l'
   386   00FED4  79                 	db	121	;'y'
   387   00FED5  20                 	db	32
   388   00FED6  76                 	db	118	;'v'
   389   00FED7  6F                 	db	111	;'o'
   390   00FED8  6C                 	db	108	;'l'
   391   00FED9  74                 	db	116	;'t'
   392   00FEDA  61                 	db	97	;'a'
   393   00FEDB  67                 	db	103	;'g'
   394   00FEDC  65                 	db	101	;'e'
   395   00FEDD  20                 	db	32
   396   00FEDE  74                 	db	116	;'t'
   397   00FEDF  6F                 	db	111	;'o'
   398   00FEE0  20                 	db	32
   399   00FEE1  64                 	db	100	;'d'
   400   00FEE2  65                 	db	101	;'e'
   401   00FEE3  74                 	db	116	;'t'
   402   00FEE4  65                 	db	101	;'e'
   403   00FEE5  63                 	db	99	;'c'
   404   00FEE6  74                 	db	116	;'t'
   405   00FEE7  20                 	db	32
   406   00FEE8  69                 	db	105	;'i'
   407   00FEE9  66                 	db	102	;'f'
   408   00FEEA  20                 	db	32
   409   00FEEB  74                 	db	116	;'t'
   410   00FEEC  68                 	db	104	;'h'
   411   00FEED  65                 	db	101	;'e'
   412   00FEEE  20                 	db	32
   413   00FEEF  73                 	db	115	;'s'
   414   00FEF0  75                 	db	117	;'u'
   415   00FEF1  70                 	db	112	;'p'
   416   00FEF2  70                 	db	112	;'p'
   417   00FEF3  6C                 	db	108	;'l'
   418   00FEF4  79                 	db	121	;'y'
   419   00FEF5  20                 	db	32
   420   00FEF6  76                 	db	118	;'v'
   421   00FEF7  6F                 	db	111	;'o'
   422   00FEF8  6C                 	db	108	;'l'
   423   00FEF9  74                 	db	116	;'t'
   424   00FEFA  61                 	db	97	;'a'
   425   00FEFB  67                 	db	103	;'g'
   426   00FEFC  65                 	db	101	;'e'
   427   00FEFD  20                 	db	32
   428   00FEFE  69                 	db	105	;'i'
   429   00FEFF  73                 	db	115	;'s'
   430   00FF00  20                 	db	32
   431   00FF01  6C                 	db	108	;'l'
   432   00FF02  65                 	db	101	;'e'
   433   00FF03  73                 	db	115	;'s'
   434   00FF04  73                 	db	115	;'s'
   435   00FF05  20                 	db	32
   436   00FF06  74                 	db	116	;'t'
   437   00FF07  68                 	db	104	;'h'
   438   00FF08  61                 	db	97	;'a'
   439   00FF09  6E                 	db	110	;'n'
   440   00FF0A  20                 	db	32
   441   00FF0B  74                 	db	116	;'t'
   442   00FF0C  68                 	db	104	;'h'
   443   00FF0D  65                 	db	101	;'e'
   444   00FF0E  20                 	db	32
   445   00FF0F  74                 	db	116	;'t'
   446   00FF10  72                 	db	114	;'r'
   447   00FF11  69                 	db	105	;'i'
   448   00FF12  70                 	db	112	;'p'
   449   00FF13  20                 	db	32
   450   00FF14  70                 	db	112	;'p'
   451   00FF15  6F                 	db	111	;'o'
   452   00FF16  69                 	db	105	;'i'
   453   00FF17  6E                 	db	110	;'n'
   454   00FF18  74                 	db	116	;'t'
   455   00FF19  2E                 	db	46
   456   00FF1A  0D                 	db	13
   457   00FF1B  0A                 	db	10
   458   00FF1C  0A                 	db	10
   459   00FF1D  0A                 	db	10
   460   00FF1E  0A                 	db	10
   461   00FF1F  00                 	db	0
   462   00FF20                     STR_1:
   463   00FF20  0D                 	db	13
   464   00FF21  09                 	db	9
   465   00FF22  20                 	db	32
   466   00FF23  2A                 	db	42
   467   00FF24  2A                 	db	42
   468   00FF25  20                 	db	32
   469   00FF26  4D                 	db	77	;'M'
   470   00FF27  6F                 	db	111	;'o'
   471   00FF28  6E                 	db	110	;'n'
   472   00FF29  69                 	db	105	;'i'
   473   00FF2A  74                 	db	116	;'t'
   474   00FF2B  6F                 	db	111	;'o'
   475   00FF2C  72                 	db	114	;'r'
   476   00FF2D  69                 	db	105	;'i'
   477   00FF2E  6E                 	db	110	;'n'
   478   00FF2F  67                 	db	103	;'g'
   479   00FF30  20                 	db	32
   480   00FF31  73                 	db	115	;'s'
   481   00FF32  75                 	db	117	;'u'
   482   00FF33  70                 	db	112	;'p'
   483   00FF34  70                 	db	112	;'p'
   484   00FF35  6C                 	db	108	;'l'
   485   00FF36  79                 	db	121	;'y'
   486   00FF37  20                 	db	32
   487   00FF38  76                 	db	118	;'v'
   488   00FF39  6F                 	db	111	;'o'
   489   00FF3A  6C                 	db	108	;'l'
   490   00FF3B  74                 	db	116	;'t'
   491   00FF3C  61                 	db	97	;'a'
   492   00FF3D  67                 	db	103	;'g'
   493   00FF3E  65                 	db	101	;'e'
   494   00FF3F  20                 	db	32
   495   00FF40  75                 	db	117	;'u'
   496   00FF41  73                 	db	115	;'s'
   497   00FF42  69                 	db	105	;'i'
   498   00FF43  6E                 	db	110	;'n'
   499   00FF44  67                 	db	103	;'g'
   500   00FF45  20                 	db	32
   501   00FF46  48                 	db	72	;'H'
   502   00FF47  4C                 	db	76	;'L'
   503   00FF48  56                 	db	86	;'V'
   504   00FF49  44                 	db	68	;'D'
   505   00FF4A  20                 	db	32
   506   00FF4B  2A                 	db	42
   507   00FF4C  2A                 	db	42
   508   00FF4D  0D                 	db	13
   509   00FF4E  0A                 	db	10
   510   00FF4F  0A                 	db	10
   511   00FF50  0A                 	db	10
   512   00FF51  00                 	db	0
   513   00FF52                     STR_4:
   514   00FF52  53                 	db	83	;'S'
   515   00FF53  75                 	db	117	;'u'
   516   00FF54  70                 	db	112	;'p'
   517   00FF55  70                 	db	112	;'p'
   518   00FF56  6C                 	db	108	;'l'
   519   00FF57  79                 	db	121	;'y'
   520   00FF58  20                 	db	32
   521   00FF59  76                 	db	118	;'v'
   522   00FF5A  6F                 	db	111	;'o'
   523   00FF5B  6C                 	db	108	;'l'
   524   00FF5C  74                 	db	116	;'t'
   525   00FF5D  61                 	db	97	;'a'
   526   00FF5E  67                 	db	103	;'g'
   527   00FF5F  65                 	db	101	;'e'
   528   00FF60  20                 	db	32
   529   00FF61  68                 	db	104	;'h'
   530   00FF62  61                 	db	97	;'a'
   531   00FF63  73                 	db	115	;'s'
   532   00FF64  20                 	db	32
   533   00FF65  64                 	db	100	;'d'
   534   00FF66  65                 	db	101	;'e'
   535   00FF67  63                 	db	99	;'c'
   536   00FF68  72                 	db	114	;'r'
   537   00FF69  65                 	db	101	;'e'
   538   00FF6A  61                 	db	97	;'a'
   539   00FF6B  73                 	db	115	;'s'
   540   00FF6C  65                 	db	101	;'e'
   541   00FF6D  64                 	db	100	;'d'
   542   00FF6E  20                 	db	32
   543   00FF6F  62                 	db	98	;'b'
   544   00FF70  65                 	db	101	;'e'
   545   00FF71  6C                 	db	108	;'l'
   546   00FF72  6F                 	db	111	;'o'
   547   00FF73  77                 	db	119	;'w'
   548   00FF74  20                 	db	32
   549   00FF75  33                 	db	51	;'3'
   550   00FF76  2E                 	db	46
   551   00FF77  31                 	db	49	;'1'
   552   00FF78  35                 	db	53	;'5'
   553   00FF79  20                 	db	32
   554   00FF7A  56                 	db	86	;'V'
   555   00FF7B  2E                 	db	46
   556   00FF7C  0D                 	db	13
   557   00FF7D  0A                 	db	10
   558   00FF7E  0A                 	db	10
   559   00FF7F  00                 	db	0
   560   00FF80                     STR_7:
   561   00FF80  53                 	db	83	;'S'
   562   00FF81  75                 	db	117	;'u'
   563   00FF82  70                 	db	112	;'p'
   564   00FF83  70                 	db	112	;'p'
   565   00FF84  6C                 	db	108	;'l'
   566   00FF85  79                 	db	121	;'y'
   567   00FF86  20                 	db	32
   568   00FF87  76                 	db	118	;'v'
   569   00FF88  6F                 	db	111	;'o'
   570   00FF89  6C                 	db	108	;'l'
   571   00FF8A  74                 	db	116	;'t'
   572   00FF8B  61                 	db	97	;'a'
   573   00FF8C  67                 	db	103	;'g'
   574   00FF8D  65                 	db	101	;'e'
   575   00FF8E  20                 	db	32
   576   00FF8F  68                 	db	104	;'h'
   577   00FF90  61                 	db	97	;'a'
   578   00FF91  73                 	db	115	;'s'
   579   00FF92  20                 	db	32
   580   00FF93  69                 	db	105	;'i'
   581   00FF94  6E                 	db	110	;'n'
   582   00FF95  63                 	db	99	;'c'
   583   00FF96  72                 	db	114	;'r'
   584   00FF97  65                 	db	101	;'e'
   585   00FF98  61                 	db	97	;'a'
   586   00FF99  73                 	db	115	;'s'
   587   00FF9A  65                 	db	101	;'e'
   588   00FF9B  64                 	db	100	;'d'
   589   00FF9C  20                 	db	32
   590   00FF9D  61                 	db	97	;'a'
   591   00FF9E  62                 	db	98	;'b'
   592   00FF9F  6F                 	db	111	;'o'
   593   00FFA0  76                 	db	118	;'v'
   594   00FFA1  65                 	db	101	;'e'
   595   00FFA2  20                 	db	32
   596   00FFA3  34                 	db	52	;'4'
   597   00FFA4  2E                 	db	46
   598   00FFA5  33                 	db	51	;'3'
   599   00FFA6  35                 	db	53	;'5'
   600   00FFA7  20                 	db	32
   601   00FFA8  56                 	db	86	;'V'
   602   00FFA9  2E                 	db	46
   603   00FFAA  0D                 	db	13
   604   00FFAB  0A                 	db	10
   605   00FFAC  0A                 	db	10
   606   00FFAD  00                 	db	0
   607   00FFAE                     STR_8:
   608   00FFAE  4E                 	db	78	;'N'
   609   00FFAF  65                 	db	101	;'e'
   610   00FFB0  77                 	db	119	;'w'
   611   00FFB1  20                 	db	32
   612   00FFB2  74                 	db	116	;'t'
   613   00FFB3  72                 	db	114	;'r'
   614   00FFB4  69                 	db	105	;'i'
   615   00FFB5  70                 	db	112	;'p'
   616   00FFB6  20                 	db	32
   617   00FFB7  70                 	db	112	;'p'
   618   00FFB8  6F                 	db	111	;'o'
   619   00FFB9  69                 	db	105	;'i'
   620   00FFBA  6E                 	db	110	;'n'
   621   00FFBB  74                 	db	116	;'t'
   622   00FFBC  20                 	db	32
   623   00FFBD  69                 	db	105	;'i'
   624   00FFBE  73                 	db	115	;'s'
   625   00FFBF  20                 	db	32
   626   00FFC0  33                 	db	51	;'3'
   627   00FFC1  2E                 	db	46
   628   00FFC2  31                 	db	49	;'1'
   629   00FFC3  35                 	db	53	;'5'
   630   00FFC4  20                 	db	32
   631   00FFC5  56                 	db	86	;'V'
   632   00FFC6  2E                 	db	46
   633   00FFC7  0D                 	db	13
   634   00FFC8  0A                 	db	10
   635   00FFC9  00                 	db	0
   636   00FFCA                     STR_5:
   637   00FFCA  4E                 	db	78	;'N'
   638   00FFCB  65                 	db	101	;'e'
   639   00FFCC  77                 	db	119	;'w'
   640   00FFCD  20                 	db	32
   641   00FFCE  74                 	db	116	;'t'
   642   00FFCF  72                 	db	114	;'r'
   643   00FFD0  69                 	db	105	;'i'
   644   00FFD1  70                 	db	112	;'p'
   645   00FFD2  20                 	db	32
   646   00FFD3  70                 	db	112	;'p'
   647   00FFD4  6F                 	db	111	;'o'
   648   00FFD5  69                 	db	105	;'i'
   649   00FFD6  6E                 	db	110	;'n'
   650   00FFD7  74                 	db	116	;'t'
   651   00FFD8  20                 	db	32
   652   00FFD9  69                 	db	105	;'i'
   653   00FFDA  73                 	db	115	;'s'
   654   00FFDB  20                 	db	32
   655   00FFDC  34                 	db	52	;'4'
   656   00FFDD  2E                 	db	46
   657   00FFDE  33                 	db	51	;'3'
   658   00FFDF  35                 	db	53	;'5'
   659   00FFE0  20                 	db	32
   660   00FFE1  56                 	db	86	;'V'
   661   00FFE2  2E                 	db	46
   662   00FFE3  0D                 	db	13
   663   00FFE4  0A                 	db	10
   664   00FFE5  00                 	db	0
   665   00FFE6                     STR_2:
   666   00FFE6  54                 	db	84	;'T'
   667   00FFE7  72                 	db	114	;'r'
   668   00FFE8  69                 	db	105	;'i'
   669   00FFE9  70                 	db	112	;'p'
   670   00FFEA  20                 	db	32
   671   00FFEB  70                 	db	112	;'p'
   672   00FFEC  6F                 	db	111	;'o'
   673   00FFED  69                 	db	105	;'i'
   674   00FFEE  6E                 	db	110	;'n'
   675   00FFEF  74                 	db	116	;'t'
   676   00FFF0  20                 	db	32
   677   00FFF1  69                 	db	105	;'i'
   678   00FFF2  73                 	db	115	;'s'
   679   00FFF3  20                 	db	32
   680   00FFF4  33                 	db	51	;'3'
   681   00FFF5  2E                 	db	46
   682   00FFF6  31                 	db	49	;'1'
   683   00FFF7  35                 	db	53	;'5'
   684   00FFF8  20                 	db	32
   685   00FFF9  56                 	db	86	;'V'
   686   00FFFA  2E                 	db	46
   687   00FFFB  0D                 	db	13
   688   00FFFC  0A                 	db	10
   689   00FFFD  00                 	db	0
   690   00FFFE  00                 	db	0	; dummy byte at the end
   691   000000                     
   692                           ; #config settings
   693                           
   694                           	psect	cinit
   695   0103DE                     __pcinit:
   696                           	callstack 0
   697   0103DE                     start_initialization:
   698                           	callstack 0
   699   0103DE                     __initialization:
   700                           	callstack 0
   701                           
   702                           ; Initialize objects allocated to COMRAM (2 bytes)
   703                           ; load TBLPTR registers with __pidataCOMRAM
   704   0103DE  0EAC               	movlw	low __pidataCOMRAM
   705   0103E0  6EF6               	movwf	tblptrl,c
   706   0103E2  0E05               	movlw	high __pidataCOMRAM
   707   0103E4  6EF7               	movwf	tblptrh,c
   708   0103E6  0E01               	movlw	low (__pidataCOMRAM shr (0+16))
   709   0103E8  6EF8               	movwf	tblptru,c
   710   0103EA  0009               	tblrd		*+	;fetch initializer
   711   0103EC  CFF5 F05A          	movff	tablat,__pdataCOMRAM
   712   0103F0  0009               	tblrd		*+	;fetch initializer
   713   0103F2  CFF5 F05B          	movff	tablat,__pdataCOMRAM+1
   714                           
   715                           ; Clear objects allocated to COMRAM (58 bytes)
   716   0103F6  EE00  F001         	lfsr	0,__pbssCOMRAM
   717   0103FA  0E3A               	movlw	58
   718   0103FC                     clear_0:
   719   0103FC  6AEE               	clrf	postinc0,c
   720   0103FE  06E8               	decf	wreg,f,c
   721   010400  E1FD               	bnz	clear_0
   722   010402                     end_of_initialization:
   723                           	callstack 0
   724   010402                     __end_of__initialization:
   725                           	callstack 0
   726   010402  905C               	bcf	int$flags,0,c	;clear compiler interrupt flag (level 1)
   727   010404  925C               	bcf	int$flags,1,c	;clear compiler interrupt flag (level 2)
   728   010406  0100               	movlb	0
   729   010408  EF00  F080         	goto	_main	;jump to C main() function
   730                           
   731                           	psect	bssCOMRAM
   732   000001                     __pbssCOMRAM:
   733                           	callstack 0
   734   000001                     	ds	32
   735   000021                     _INT2_InterruptHandler:
   736                           	callstack 0
   737   000021                     	ds	3
   738   000024                     _INT1_InterruptHandler:
   739                           	callstack 0
   740   000024                     	ds	3
   741   000027                     _INT0_InterruptHandler:
   742                           	callstack 0
   743   000027                     	ds	3
   744   00002A                     _EUSART2_OverrunErrorHandler:
   745                           	callstack 0
   746   00002A                     	ds	3
   747   00002D                     _EUSART2_FramingErrorHandler:
   748                           	callstack 0
   749   00002D                     	ds	3
   750   000030                     _HLVD_Callback:
   751                           	callstack 0
   752   000030                     	ds	3
   753   000033                     _width:
   754                           	callstack 0
   755   000033                     	ds	2
   756   000035                     _prec:
   757                           	callstack 0
   758   000035                     	ds	2
   759   000037                     _eusart2RxLastError:
   760                           	callstack 0
   761   000037                     	ds	2
   762   000039                     _flags:
   763                           	callstack 0
   764   000039                     	ds	1
   765   00003A                     _hlvdIntFlag:
   766                           	callstack 0
   767   00003A                     	ds	1
   768                           
   769                           	psect	dataCOMRAM
   770   00005A                     __pdataCOMRAM:
   771                           	callstack 0
   772   00005A                     _wait4ledCnt:
   773                           	callstack 0
   774   00005A                     	ds	2
   775                           
   776                           	psect	cstackCOMRAM
   777   00003B                     __pcstackCOMRAM:
   778                           	callstack 0
   779   00003B                     ??_INTERRUPT_InterruptManager:
   780   00003B                     
   781                           ; 2 bytes @ 0x0
   782   00003B                     	ds	2
   783   00003D                     HLVD_TripPointSetup@Positive_Trip:
   784                           	callstack 0
   785   00003D                     _EUSART2_IsTxReady$721:
   786                           	callstack 0
   787   00003D                     EUSART2_Write@txData:
   788                           	callstack 0
   789   00003D                     HLVD_CallbackRegister@CallbackHandler:
   790                           	callstack 0
   791   00003D                     EUSART2_FramingErrorCallbackRegister@callbackHandler:
   792                           	callstack 0
   793   00003D                     EUSART2_OverrunErrorCallbackRegister@callbackHandler:
   794                           	callstack 0
   795   00003D                     INT0_SetInterruptHandler@InterruptHandler:
   796                           	callstack 0
   797   00003D                     INT1_SetInterruptHandler@InterruptHandler:
   798                           	callstack 0
   799   00003D                     INT2_SetInterruptHandler@InterruptHandler:
   800                           	callstack 0
   801                           
   802                           ; 3 bytes @ 0x2
   803   00003D                     	ds	1
   804   00003E                     HLVD_TripPointSetup@trip_points:
   805                           	callstack 0
   806   00003E                     putch@txData:
   807                           	callstack 0
   808                           
   809                           ; 1 bytes @ 0x3
   810   00003E                     	ds	1
   811   00003F                     HLVD_TripPointSetup@Negative_Trip:
   812                           	callstack 0
   813   00003F                     fputc@c:
   814                           	callstack 0
   815                           
   816                           ; 2 bytes @ 0x4
   817   00003F                     	ds	1
   818   000040                     
   819                           ; 1 bytes @ 0x5
   820   000040                     	ds	1
   821   000041                     fputc@fp:
   822                           	callstack 0
   823                           
   824                           ; 2 bytes @ 0x6
   825   000041                     	ds	2
   826   000043                     ??_fputc:
   827                           
   828                           ; 1 bytes @ 0x8
   829   000043                     	ds	5
   830   000048                     vfpfcnvrt@fp:
   831                           	callstack 0
   832                           
   833                           ; 2 bytes @ 0xD
   834   000048                     	ds	2
   835   00004A                     vfpfcnvrt@fmt:
   836                           	callstack 0
   837                           
   838                           ; 2 bytes @ 0xF
   839   00004A                     	ds	2
   840   00004C                     vfpfcnvrt@ap:
   841                           	callstack 0
   842                           
   843                           ; 2 bytes @ 0x11
   844   00004C                     	ds	2
   845   00004E                     ?_vfprintf:
   846                           	callstack 0
   847   00004E                     vfprintf@fp:
   848                           	callstack 0
   849                           
   850                           ; 2 bytes @ 0x13
   851   00004E                     	ds	2
   852   000050                     vfprintf@fmt:
   853                           	callstack 0
   854                           
   855                           ; 2 bytes @ 0x15
   856   000050                     	ds	2
   857   000052                     vfprintf@ap:
   858                           	callstack 0
   859                           
   860                           ; 2 bytes @ 0x17
   861   000052                     	ds	2
   862   000054                     vfprintf@cfmt:
   863                           	callstack 0
   864                           
   865                           ; 2 bytes @ 0x19
   866   000054                     	ds	2
   867   000056                     ?_printf:
   868                           	callstack 0
   869   000056                     printf@fmt:
   870                           	callstack 0
   871                           
   872                           ; 2 bytes @ 0x1B
   873   000056                     	ds	2
   874   000058                     printf@ap:
   875                           	callstack 0
   876                           
   877                           ; 2 bytes @ 0x1D
   878   000058                     	ds	2
   879   00005A                     
   880                           ; 1 bytes @ 0x1F
   881 ;;
   882 ;;Main: autosize = 0, tempsize = 0, incstack = 0, save=0
   883 ;;
   884 ;; *************** function _main *****************
   885 ;; Defined at:
   886 ;;		line 53 in file "main.c"
   887 ;; Parameters:    Size  Location     Type
   888 ;;		None
   889 ;; Auto vars:     Size  Location     Type
   890 ;;		None
   891 ;; Return value:  Size  Location     Type
   892 ;;                  2  171[None  ] int 
   893 ;; Registers used:
   894 ;;		wreg, fsr1l, fsr1h, fsr2l, fsr2h, status,2, status,0, tblptrl, tblptrh, tblptru, cstack
   895 ;; Tracked objects:
   896 ;;		On entry : 0/0
   897 ;;		On exit  : 0/0
   898 ;;		Unchanged: 0/0
   899 ;; Data sizes:     COMRAM   BANK0   BANK1   BANK2   BANK3   BANK4   BANK5   BANK6   BANK7   BANK8   BANK9  BANK10  BANK1
      +1  BANK12  BANK14
   900 ;;      Params:         0       0       0       0       0       0       0       0       0       0       0       0       
      +0       0       0
   901 ;;      Locals:         0       0       0       0       0       0       0       0       0       0       0       0       
      +0       0       0
   902 ;;      Temps:          0       0       0       0       0       0       0       0       0       0       0       0       
      +0       0       0
   903 ;;      Totals:         0       0       0       0       0       0       0       0       0       0       0       0       
      +0       0       0
   904 ;;Total ram usage:        0 bytes
   905 ;; Hardware stack levels required when called: 9
   906 ;; This function calls:
   907 ;;		_HLVD_CallbackRegister
   908 ;;		_HLVD_OutputStatusGet
   909 ;;		_HLVD_TripPointSetup
   910 ;;		_SYSTEM_Initialize
   911 ;;		_printf
   912 ;; This function is called by:
   913 ;;		Startup code after reset
   914 ;; This function uses a non-reentrant model
   915 ;;
   916                           
   917                           	psect	text0
   918   010000                     __ptext0:
   919                           	callstack 0
   920   010000                     _main:
   921                           	callstack 22
   922   010000                     
   923                           ;main.c: 55:     SYSTEM_Initialize();
   924   010000  EC9D  F082         	call	_SYSTEM_Initialize	;wreg free
   925   010004                     
   926                           ;main.c: 62:     (INTCONbits.GIE = 1);
   927   010004  8EF2               	bsf	242,7,c	;volatile
   928   010006                     
   929                           ;main.c: 68:     (INTCONbits.PEIE = 1);
   930   010006  8CF2               	bsf	242,6,c	;volatile
   931                           
   932                           ;main.c: 74:     HLVD_CallbackRegister(HLVD_UserCallback);
   933   010008  0EA6               	movlw	low _HLVD_UserCallback
   934   01000A  6E3D               	movwf	HLVD_CallbackRegister@CallbackHandler^0,c
   935   01000C  0E05               	movlw	high _HLVD_UserCallback
   936   01000E  6E3E               	movwf	(HLVD_CallbackRegister@CallbackHandler+1)^0,c
   937   010010  0E01               	movlw	low (_HLVD_UserCallback shr (0+16))
   938   010012  6E3F               	movwf	(HLVD_CallbackRegister@CallbackHandler+2)^0,c
   939   010014  ECC8  F082         	call	_HLVD_CallbackRegister	;wreg free
   940   010018                     
   941                           ;main.c: 77:     printf("\r\t ** Monitoring supply voltage using HLVD **\r\n\n\n");
   942   010018  0E20               	movlw	low STR_1
   943   01001A  6E56               	movwf	printf@fmt^0,c
   944   01001C  0EFF               	movlw	high STR_1
   945   01001E  6E57               	movwf	(printf@fmt+1)^0,c
   946   010020  EC1B  F082         	call	_printf	;wreg free
   947   010024                     
   948                           ;main.c: 78:     printf("Trip point is 3.15 V.\r\n");
   949   010024  0EE6               	movlw	low STR_2
   950   010026  6E56               	movwf	printf@fmt^0,c
   951   010028  0EFF               	movlw	high STR_2
   952   01002A  6E57               	movwf	(printf@fmt+1)^0,c
   953   01002C  EC1B  F082         	call	_printf	;wreg free
   954   010030                     
   955                           ;main.c: 79:     printf("Decrease the supply voltage to detect if the supply voltage is 
      +                          less than the trip point.\r\n\n\n\n");
   956   010030  0EC2               	movlw	low STR_3
   957   010032  6E56               	movwf	printf@fmt^0,c
   958   010034  0EFE               	movlw	high STR_3
   959   010036  6E57               	movwf	(printf@fmt+1)^0,c
   960   010038  EC1B  F082         	call	_printf	;wreg free
   961   01003C                     l1653:
   962                           
   963                           ;main.c: 82:     {;main.c: 83:         if (hlvdIntFlag == (1) )
   964   01003C  043A               	decf	_hlvdIntFlag^0,w,c	;volatile
   965   01003E  A4D8               	btfss	status,2,c
   966   010040  EF24  F080         	goto	u521
   967   010044  EF26  F080         	goto	u520
   968   010048                     u521:
   969   010048  EF6D  F080         	goto	l1677
   970   01004C                     u520:
   971   01004C                     
   972                           ;main.c: 84:         {;main.c: 85:             hlvdIntFlag = (0);
   973   01004C  0E00               	movlw	0
   974   01004E  6E3A               	movwf	_hlvdIntFlag^0,c	;volatile
   975   010050  9086               	bcf	134,0,c	;volatile
   976   010052                     
   977                           ;main.c: 87:             wait4ledCnt = (1000);
   978   010052  0E03               	movlw	3
   979   010054  6E5B               	movwf	(_wait4ledCnt+1)^0,c
   980   010056  0EE8               	movlw	232
   981   010058  6E5A               	movwf	_wait4ledCnt^0,c
   982   01005A                     
   983                           ;main.c: 90:             if(HLVD_OutputStatusGet()== (1))
   984   01005A  ECA8  F082         	call	_HLVD_OutputStatusGet	;wreg free
   985   01005E  06E8               	decf	wreg,f,c
   986   010060  A4D8               	btfss	status,2,c
   987   010062  EF35  F080         	goto	u531
   988   010066  EF37  F080         	goto	u530
   989   01006A                     u531:
   990   01006A  EF52  F080         	goto	l1669
   991   01006E                     u530:
   992   01006E                     
   993                           ;main.c: 91:             {;main.c: 93:                 printf("Supply voltage has decrea
      +                          sed below 3.15 V.\r\n\n");
   994   01006E  0E52               	movlw	low STR_4
   995   010070  6E56               	movwf	printf@fmt^0,c
   996   010072  0EFF               	movlw	high STR_4
   997   010074  6E57               	movwf	(printf@fmt+1)^0,c
   998   010076  EC1B  F082         	call	_printf	;wreg free
   999   01007A                     
  1000                           ;main.c: 95:                 HLVD_TripPointSetup((0), (1), HLVD_TRIP_POINT_4p20V);
  1001   01007A  0E01               	movlw	1
  1002   01007C  6E3D               	movwf	HLVD_TripPointSetup@Positive_Trip^0,c
  1003   01007E  0E0D               	movlw	13
  1004   010080  6E3E               	movwf	HLVD_TripPointSetup@trip_points^0,c
  1005   010082  0E00               	movlw	0
  1006   010084  EC61  F082         	call	_HLVD_TripPointSetup
  1007   010088                     
  1008                           ;main.c: 96:                 printf("New trip point is 4.35 V.\r\n");
  1009   010088  0ECA               	movlw	low STR_5
  1010   01008A  6E56               	movwf	printf@fmt^0,c
  1011   01008C  0EFF               	movlw	high STR_5
  1012   01008E  6E57               	movwf	(printf@fmt+1)^0,c
  1013   010090  EC1B  F082         	call	_printf	;wreg free
  1014   010094                     
  1015                           ;main.c: 97:                 printf("Increase the supply voltage to detect if the supply
      +                           voltage is greater than the trip point.\r\n\n\n\n");
  1016   010094  0E61               	movlw	low STR_6
  1017   010096  6E56               	movwf	printf@fmt^0,c
  1018   010098  0EFE               	movlw	high STR_6
  1019   01009A  6E57               	movwf	(printf@fmt+1)^0,c
  1020   01009C  EC1B  F082         	call	_printf	;wreg free
  1021                           
  1022                           ;main.c: 98:             }
  1023   0100A0  EF1E  F080         	goto	l1653
  1024   0100A4                     l1669:
  1025                           
  1026                           ;main.c: 100:             {;main.c: 102:                 printf("Supply voltage has incr
      +                          eased above 4.35 V.\r\n\n");
  1027   0100A4  0E80               	movlw	low STR_7
  1028   0100A6  6E56               	movwf	printf@fmt^0,c
  1029   0100A8  0EFF               	movlw	high STR_7
  1030   0100AA  6E57               	movwf	(printf@fmt+1)^0,c
  1031   0100AC  EC1B  F082         	call	_printf	;wreg free
  1032   0100B0                     
  1033                           ;main.c: 104:                 HLVD_TripPointSetup((1), (0), HLVD_TRIP_POINT_3p00V);
  1034   0100B0  0E00               	movlw	0
  1035   0100B2  6E3D               	movwf	HLVD_TripPointSetup@Positive_Trip^0,c
  1036   0100B4  0E07               	movlw	7
  1037   0100B6  6E3E               	movwf	HLVD_TripPointSetup@trip_points^0,c
  1038   0100B8  0E01               	movlw	1
  1039   0100BA  EC61  F082         	call	_HLVD_TripPointSetup
  1040   0100BE                     
  1041                           ;main.c: 105:                 printf("New trip point is 3.15 V.\r\n");
  1042   0100BE  0EAE               	movlw	low STR_8
  1043   0100C0  6E56               	movwf	printf@fmt^0,c
  1044   0100C2  0EFF               	movlw	high STR_8
  1045   0100C4  6E57               	movwf	(printf@fmt+1)^0,c
  1046   0100C6  EC1B  F082         	call	_printf	;wreg free
  1047   0100CA                     
  1048                           ;main.c: 106:                 printf("Decrease the supply voltage to detect if the suppl
      +                          y voltage is less than the trip point.\r\n\n\n\n");
  1049   0100CA  0EC2               	movlw	low STR_3
  1050   0100CC  6E56               	movwf	printf@fmt^0,c
  1051   0100CE  0EFE               	movlw	high STR_3
  1052   0100D0  6E57               	movwf	(printf@fmt+1)^0,c
  1053   0100D2  EC1B  F082         	call	_printf	;wreg free
  1054   0100D6  EF1E  F080         	goto	l1653
  1055   0100DA                     l1677:
  1056                           
  1057                           ;main.c: 110:         {;main.c: 111:             wait4ledCnt--;
  1058   0100DA  065A               	decf	_wait4ledCnt^0,f,c
  1059   0100DC  A0D8               	btfss	status,0,c
  1060   0100DE  065B               	decf	(_wait4ledCnt+1)^0,f,c
  1061   0100E0                     
  1062                           ;main.c: 112:             if(!wait4ledCnt)
  1063   0100E0  505A               	movf	_wait4ledCnt^0,w,c
  1064   0100E2  105B               	iorwf	(_wait4ledCnt+1)^0,w,c
  1065   0100E4  A4D8               	btfss	status,2,c
  1066   0100E6  EF77  F080         	goto	u541
  1067   0100EA  EF79  F080         	goto	u540
  1068   0100EE                     u541:
  1069   0100EE  EF1E  F080         	goto	l1653
  1070   0100F2                     u540:
  1071   0100F2  8086               	bsf	134,0,c	;volatile
  1072   0100F4                     
  1073                           ;main.c: 115:                 wait4ledCnt = (1000);
  1074   0100F4  0E03               	movlw	3
  1075   0100F6  6E5B               	movwf	(_wait4ledCnt+1)^0,c
  1076   0100F8  0EE8               	movlw	232
  1077   0100FA  6E5A               	movwf	_wait4ledCnt^0,c
  1078   0100FC  EF1E  F080         	goto	l1653
  1079   010100  EF3B  F000         	goto	start
  1080   010104                     __end_of_main:
  1081                           	callstack 0
  1082                           
  1083 ;; *************** function _printf *****************
  1084 ;; Defined at:
  1085 ;;		line 5 in file "C:\Program Files\Microchip\xc8\v2.41\pic\sources\c99\common\printf.c"
  1086 ;; Parameters:    Size  Location     Type
  1087 ;;  fmt             2   27[COMRAM] PTR const unsigned char 
  1088 ;;		 -> STR_9(94), STR_8(28), STR_7(46), STR_6(97), 
  1089 ;;		 -> STR_5(28), STR_4(46), STR_3(94), STR_2(24), 
  1090 ;;		 -> STR_1(50), 
  1091 ;; Auto vars:     Size  Location     Type
  1092 ;;  ap              2   29[COMRAM] PTR void [1]
  1093 ;;		 -> ?_printf(2), 
  1094 ;;  ret             2    0        int 
  1095 ;; Return value:  Size  Location     Type
  1096 ;;                  2   27[COMRAM] int 
  1097 ;; Registers used:
  1098 ;;		wreg, fsr1l, fsr1h, fsr2l, fsr2h, status,2, status,0, tblptrl, tblptrh, tblptru, cstack
  1099 ;; Tracked objects:
  1100 ;;		On entry : 0/0
  1101 ;;		On exit  : 0/0
  1102 ;;		Unchanged: 0/0
  1103 ;; Data sizes:     COMRAM   BANK0   BANK1   BANK2   BANK3   BANK4   BANK5   BANK6   BANK7   BANK8   BANK9  BANK10  BANK1
      +1  BANK12  BANK14
  1104 ;;      Params:         2       0       0       0       0       0       0       0       0       0       0       0       
      +0       0       0
  1105 ;;      Locals:         2       0       0       0       0       0       0       0       0       0       0       0       
      +0       0       0
  1106 ;;      Temps:          0       0       0       0       0       0       0       0       0       0       0       0       
      +0       0       0
  1107 ;;      Totals:         4       0       0       0       0       0       0       0       0       0       0       0       
      +0       0       0
  1108 ;;Total ram usage:        4 bytes
  1109 ;; Hardware stack levels used: 1
  1110 ;; Hardware stack levels required when called: 8
  1111 ;; This function calls:
  1112 ;;		_vfprintf
  1113 ;; This function is called by:
  1114 ;;		_main
  1115 ;; This function uses a non-reentrant model
  1116 ;;
  1117                           
  1118                           	psect	text1
  1119   010436                     __ptext1:
  1120                           	callstack 0
  1121   010436                     _printf:
  1122                           	callstack 22
  1123   010436  0E58               	movlw	low (?_printf+2)
  1124   010438  6E58               	movwf	printf@ap^0,c
  1125   01043A  0E00               	movlw	high (?_printf+2)
  1126   01043C  6E59               	movwf	(printf@ap+1)^0,c
  1127   01043E  0E00               	movlw	0
  1128   010440  6E4E               	movwf	vfprintf@fp^0,c
  1129   010442  0E00               	movlw	0
  1130   010444  6E4F               	movwf	(vfprintf@fp+1)^0,c
  1131   010446  C056  F050         	movff	printf@fmt,vfprintf@fmt
  1132   01044A  C057  F051         	movff	printf@fmt+1,vfprintf@fmt+1
  1133   01044E  0E58               	movlw	low printf@ap
  1134   010450  6E52               	movwf	vfprintf@ap^0,c
  1135   010452  0E00               	movlw	high printf@ap
  1136   010454  6E53               	movwf	(vfprintf@ap+1)^0,c
  1137   010456  EC83  F081         	call	_vfprintf	;wreg free
  1138   01045A  0012               	return		;funcret
  1139   01045C                     __end_of_printf:
  1140                           	callstack 0
  1141                           
  1142 ;; *************** function _vfprintf *****************
  1143 ;; Defined at:
  1144 ;;		line 1546 in file "C:\Program Files\Microchip\xc8\v2.41\pic\sources\c99\common\doprnt.c"
  1145 ;; Parameters:    Size  Location     Type
  1146 ;;  fp              2   19[COMRAM] PTR struct _IO_FILE
  1147 ;;		 -> NULL(0), 
  1148 ;;  fmt             2   21[COMRAM] PTR const unsigned char 
  1149 ;;		 -> STR_9(94), STR_8(28), STR_7(46), STR_6(97), 
  1150 ;;		 -> STR_5(28), STR_4(46), STR_3(94), STR_2(24), 
  1151 ;;		 -> STR_1(50), 
  1152 ;;  ap              2   23[COMRAM] PTR PTR void 
  1153 ;;		 -> printf@ap(2), 
  1154 ;; Auto vars:     Size  Location     Type
  1155 ;;  cfmt            2   25[COMRAM] PTR unsigned char 
  1156 ;;		 -> STR_9(94), STR_8(28), STR_7(46), STR_6(97), 
  1157 ;;		 -> STR_5(28), STR_4(46), STR_3(94), STR_2(24), 
  1158 ;;		 -> STR_1(50), 
  1159 ;; Return value:  Size  Location     Type
  1160 ;;                  2   19[COMRAM] int 
  1161 ;; Registers used:
  1162 ;;		wreg, fsr1l, fsr1h, fsr2l, fsr2h, status,2, status,0, tblptrl, tblptrh, tblptru, cstack
  1163 ;; Tracked objects:
  1164 ;;		On entry : 0/0
  1165 ;;		On exit  : 0/0
  1166 ;;		Unchanged: 0/0
  1167 ;; Data sizes:     COMRAM   BANK0   BANK1   BANK2   BANK3   BANK4   BANK5   BANK6   BANK7   BANK8   BANK9  BANK10  BANK1
      +1  BANK12  BANK14
  1168 ;;      Params:         6       0       0       0       0       0       0       0       0       0       0       0       
      +0       0       0
  1169 ;;      Locals:         2       0       0       0       0       0       0       0       0       0       0       0       
      +0       0       0
  1170 ;;      Temps:          0       0       0       0       0       0       0       0       0       0       0       0       
      +0       0       0
  1171 ;;      Totals:         8       0       0       0       0       0       0       0       0       0       0       0       
      +0       0       0
  1172 ;;Total ram usage:        8 bytes
  1173 ;; Hardware stack levels used: 1
  1174 ;; Hardware stack levels required when called: 7
  1175 ;; This function calls:
  1176 ;;		_vfpfcnvrt
  1177 ;; This function is called by:
  1178 ;;		_printf
  1179 ;; This function uses a non-reentrant model
  1180 ;;
  1181                           
  1182                           	psect	text2
  1183   010306                     __ptext2:
  1184                           	callstack 0
  1185   010306                     _vfprintf:
  1186                           	callstack 22
  1187   010306                     
  1188                           ;C:\Program Files\Microchip\xc8\v2.41\pic\sources\c99\common\doprnt.c: 1546: int vfprint
      +                          f(FILE *fp, const char *fmt, va_list ap);C:\Program Files\Microchip\xc8\v2.41\pic\source
      +                          s\c99\common\doprnt.c: 1547: {;C:\Program Files\Microchip\xc8\v2.41\pic\sources\c99\comm
      +                          on\doprnt.c: 1549:     char *cfmt;;C:\Program Files\Microchip\xc8\v2.41\pic\sources\c99\
      +                          common\doprnt.c: 1551:     cfmt = (char *)fmt;
  1189   010306  C050  F054         	movff	vfprintf@fmt,vfprintf@cfmt
  1190   01030A  C051  F055         	movff	vfprintf@fmt+1,vfprintf@cfmt+1
  1191                           
  1192                           ;C:\Program Files\Microchip\xc8\v2.41\pic\sources\c99\common\doprnt.c: 1555:     while (
      +                          *cfmt) {
  1193   01030E  EF97  F081         	goto	l1615
  1194   010312                     l1613:
  1195                           
  1196                           ;C:\Program Files\Microchip\xc8\v2.41\pic\sources\c99\common\doprnt.c: 1559:    vfpfcnvr
      +                          t(fp, &cfmt, ap);
  1197   010312  C04E  F048         	movff	vfprintf@fp,vfpfcnvrt@fp
  1198   010316  C04F  F049         	movff	vfprintf@fp+1,vfpfcnvrt@fp+1
  1199   01031A  0E54               	movlw	low vfprintf@cfmt
  1200   01031C  6E4A               	movwf	vfpfcnvrt@fmt^0,c
  1201   01031E  0E00               	movlw	high vfprintf@cfmt
  1202   010320  6E4B               	movwf	(vfpfcnvrt@fmt+1)^0,c
  1203   010322  C052  F04C         	movff	vfprintf@ap,vfpfcnvrt@ap
  1204   010326  C053  F04D         	movff	vfprintf@ap+1,vfpfcnvrt@ap+1
  1205   01032A  EC40  F081         	call	_vfpfcnvrt	;wreg free
  1206   01032E                     l1615:
  1207                           
  1208                           ;C:\Program Files\Microchip\xc8\v2.41\pic\sources\c99\common\doprnt.c: 1555:     while (
      +                          *cfmt) {
  1209   01032E  C054  FFF6         	movff	vfprintf@cfmt,tblptrl
  1210   010332  C055  FFF7         	movff	vfprintf@cfmt+1,tblptrh
  1211   010336                     	if	0	;tblptru may be non-zero
  1212   010336                     	endif
  1213   010336                     	if	1	;Program memory is > 0xFFFF, there are 3 active tblptr bytes
  1214   010336  0E00               	movlw	low (__mediumconst shr (0+16))
  1215   010338  6EF8               	movwf	tblptru,c
  1216   01033A                     	endif
  1217   01033A  0008               	tblrd		*
  1218   01033C  50F5               	movf	tablat,w,c
  1219   01033E  0900               	iorlw	0
  1220   010340  A4D8               	btfss	status,2,c
  1221   010342  EFA5  F081         	goto	u491
  1222   010346  EFA7  F081         	goto	u490
  1223   01034A                     u491:
  1224   01034A  EF89  F081         	goto	l1613
  1225   01034E                     u490:
  1226   01034E                     
  1227                           ;C:\Program Files\Microchip\xc8\v2.41\pic\sources\c99\common\doprnt.c: 1564:  return 0;
  1228   01034E  0E00               	movlw	0
  1229   010350  6E4F               	movwf	(?_vfprintf+1)^0,c
  1230   010352  0E00               	movlw	0
  1231   010354  6E4E               	movwf	?_vfprintf^0,c
  1232   010356  0012               	return		;funcret
  1233   010358                     __end_of_vfprintf:
  1234                           	callstack 0
  1235                           
  1236 ;; *************** function _vfpfcnvrt *****************
  1237 ;; Defined at:
  1238 ;;		line 1048 in file "C:\Program Files\Microchip\xc8\v2.41\pic\sources\c99\common\doprnt.c"
  1239 ;; Parameters:    Size  Location     Type
  1240 ;;  fp              2   13[COMRAM] PTR struct _IO_FILE
  1241 ;;		 -> NULL(0), 
  1242 ;;  fmt             2   15[COMRAM] PTR PTR unsigned char 
  1243 ;;		 -> vfprintf@cfmt(2), 
  1244 ;;  ap              2   17[COMRAM] PTR PTR void 
  1245 ;;		 -> printf@ap(2), 
  1246 ;; Auto vars:     Size  Location     Type
  1247 ;;  convarg         4    0        struct .
  1248 ;;  cp              3    0        PTR unsigned char 
  1249 ;;  i               2    0        int 
  1250 ;;  done            2    0        int 
  1251 ;;  c               1    0        unsigned char 
  1252 ;; Return value:  Size  Location     Type
  1253 ;;                  1    wreg      void 
  1254 ;; Registers used:
  1255 ;;		wreg, fsr1l, fsr1h, fsr2l, fsr2h, status,2, status,0, tblptrl, tblptrh, tblptru, cstack
  1256 ;; Tracked objects:
  1257 ;;		On entry : 0/0
  1258 ;;		On exit  : 0/0
  1259 ;;		Unchanged: 0/0
  1260 ;; Data sizes:     COMRAM   BANK0   BANK1   BANK2   BANK3   BANK4   BANK5   BANK6   BANK7   BANK8   BANK9  BANK10  BANK1
      +1  BANK12  BANK14
  1261 ;;      Params:         6       0       0       0       0       0       0       0       0       0       0       0       
      +0       0       0
  1262 ;;      Locals:         0       0       0       0       0       0       0       0       0       0       0       0       
      +0       0       0
  1263 ;;      Temps:          0       0       0       0       0       0       0       0       0       0       0       0       
      +0       0       0
  1264 ;;      Totals:         6       0       0       0       0       0       0       0       0       0       0       0       
      +0       0       0
  1265 ;;Total ram usage:        6 bytes
  1266 ;; Hardware stack levels used: 1
  1267 ;; Hardware stack levels required when called: 6
  1268 ;; This function calls:
  1269 ;;		_fputc
  1270 ;; This function is called by:
  1271 ;;		_vfprintf
  1272 ;; This function uses a non-reentrant model
  1273 ;;
  1274                           
  1275                           	psect	text3
  1276   010280                     __ptext3:
  1277                           	callstack 0
  1278   010280                     _vfpfcnvrt:
  1279                           	callstack 22
  1280   010280                     
  1281                           ;C:\Program Files\Microchip\xc8\v2.41\pic\sources\c99\common\doprnt.c: 1048: vfpfcnvrt(F
      +                          ILE *fp, char *fmt[], va_list ap);C:\Program Files\Microchip\xc8\v2.41\pic\sources\c99\c
      +                          ommon\doprnt.c: 1049: {;C:\Program Files\Microchip\xc8\v2.41\pic\sources\c99\common\dopr
      +                          nt.c: 1050:     char c, *cp;;C:\Program Files\Microchip\xc8\v2.41\pic\sources\c99\common
      +                          \doprnt.c: 1051:     int done, i;;C:\Program Files\Microchip\xc8\v2.41\pic\sources\c99\c
      +                          ommon\doprnt.c: 1059:  } convarg;;C:\Program Files\Microchip\xc8\v2.41\pic\sources\c99\c
      +                          ommon\doprnt.c: 1062:     if ((*fmt)[0] == '%') {
  1282   010280  C04A  FFD9         	movff	vfpfcnvrt@fmt,fsr2l
  1283   010284  C04B  FFDA         	movff	vfpfcnvrt@fmt+1,fsr2h
  1284   010288  CFDE FFF6          	movff	postinc2,tblptrl
  1285   01028C  CFDD FFF7          	movff	postdec2,tblptrh
  1286   010290                     	if	0	;tblptru may be non-zero
  1287   010290                     	endif
  1288   010290                     	if	1	;Program memory is > 0xFFFF, there are 3 active tblptr bytes
  1289   010290  0E00               	movlw	low (__mediumconst shr (0+16))
  1290   010292  6EF8               	movwf	tblptru,c
  1291   010294                     	endif
  1292   010294  0008               	tblrd		*
  1293   010296  50F5               	movf	tablat,w,c
  1294   010298  0A25               	xorlw	37
  1295   01029A  A4D8               	btfss	status,2,c
  1296   01029C  EF52  F081         	goto	u481
  1297   0102A0  EF54  F081         	goto	u480
  1298   0102A4                     u481:
  1299   0102A4  EF6C  F081         	goto	l1579
  1300   0102A8                     u480:
  1301   0102A8                     
  1302                           ;C:\Program Files\Microchip\xc8\v2.41\pic\sources\c99\common\doprnt.c: 1063:         ++*
      +                          fmt;
  1303   0102A8  C04A  FFD9         	movff	vfpfcnvrt@fmt,fsr2l
  1304   0102AC  C04B  FFDA         	movff	vfpfcnvrt@fmt+1,fsr2h
  1305   0102B0  2ADE               	incf	postinc2,f,c
  1306   0102B2  0E00               	movlw	0
  1307   0102B4  22DD               	addwfc	postdec2,f,c
  1308   0102B6                     
  1309                           ;C:\Program Files\Microchip\xc8\v2.41\pic\sources\c99\common\doprnt.c: 1065:         fla
      +                          gs = width = 0;
  1310   0102B6  0E00               	movlw	0
  1311   0102B8  6E34               	movwf	(_width+1)^0,c
  1312   0102BA  0E00               	movlw	0
  1313   0102BC  6E33               	movwf	_width^0,c
  1314   0102BE  C033  F039         	movff	_width,_flags
  1315   0102C2                     
  1316                           ;C:\Program Files\Microchip\xc8\v2.41\pic\sources\c99\common\doprnt.c: 1066:         pre
      +                          c = -1;
  1317   0102C2  6835               	setf	_prec^0,c
  1318   0102C4  6836               	setf	(_prec+1)^0,c
  1319   0102C6                     l1575:
  1320                           
  1321                           ;C:\Program Files\Microchip\xc8\v2.41\pic\sources\c99\common\doprnt.c: 1535:         ++*
      +                          fmt;
  1322   0102C6  C04A  FFD9         	movff	vfpfcnvrt@fmt,fsr2l
  1323   0102CA  C04B  FFDA         	movff	vfpfcnvrt@fmt+1,fsr2h
  1324   0102CE  2ADE               	incf	postinc2,f,c
  1325   0102D0  0E00               	movlw	0
  1326   0102D2  22DD               	addwfc	postdec2,f,c
  1327   0102D4  EF82  F081         	goto	l1167
  1328   0102D8                     l1579:
  1329                           
  1330                           ;C:\Program Files\Microchip\xc8\v2.41\pic\sources\c99\common\doprnt.c: 1540:     fputc((
      +                          int)(*fmt)[0], fp);
  1331   0102D8  C04A  FFD9         	movff	vfpfcnvrt@fmt,fsr2l
  1332   0102DC  C04B  FFDA         	movff	vfpfcnvrt@fmt+1,fsr2h
  1333   0102E0  CFDE FFF6          	movff	postinc2,tblptrl
  1334   0102E4  CFDD FFF7          	movff	postdec2,tblptrh
  1335   0102E8                     	if	0	;tblptru may be non-zero
  1336   0102E8                     	endif
  1337   0102E8                     	if	1	;Program memory is > 0xFFFF, there are 3 active tblptr bytes
  1338   0102E8  0E00               	movlw	low (__mediumconst shr (0+16))
  1339   0102EA  6EF8               	movwf	tblptru,c
  1340   0102EC                     	endif
  1341   0102EC  0008               	tblrd		*
  1342   0102EE  50F5               	movf	tablat,w,c
  1343   0102F0  6E3F               	movwf	fputc@c^0,c
  1344   0102F2  6A40               	clrf	(fputc@c+1)^0,c
  1345   0102F4  C048  F041         	movff	vfpfcnvrt@fp,fputc@fp
  1346   0102F8  C049  F042         	movff	vfpfcnvrt@fp+1,fputc@fp+1
  1347   0102FC  EC82  F080         	call	_fputc	;wreg free
  1348   010300  EF63  F081         	goto	l1575
  1349   010304                     l1167:
  1350   010304  0012               	return		;funcret
  1351   010306                     __end_of_vfpfcnvrt:
  1352                           	callstack 0
  1353                           
  1354 ;; *************** function _fputc *****************
  1355 ;; Defined at:
  1356 ;;		line 8 in file "C:\Program Files\Microchip\xc8\v2.41\pic\sources\c99\common\nf_fputc.c"
  1357 ;; Parameters:    Size  Location     Type
  1358 ;;  c               2    4[COMRAM] int 
  1359 ;;  fp              2    6[COMRAM] PTR struct _IO_FILE
  1360 ;;		 -> NULL(0), 
  1361 ;; Auto vars:     Size  Location     Type
  1362 ;;		None
  1363 ;; Return value:  Size  Location     Type
  1364 ;;                  2    4[COMRAM] int 
  1365 ;; Registers used:
  1366 ;;		wreg, fsr1l, fsr1h, fsr2l, fsr2h, status,2, status,0, cstack
  1367 ;; Tracked objects:
  1368 ;;		On entry : 0/0
  1369 ;;		On exit  : 0/0
  1370 ;;		Unchanged: 0/0
  1371 ;; Data sizes:     COMRAM   BANK0   BANK1   BANK2   BANK3   BANK4   BANK5   BANK6   BANK7   BANK8   BANK9  BANK10  BANK1
      +1  BANK12  BANK14
  1372 ;;      Params:         4       0       0       0       0       0       0       0       0       0       0       0       
      +0       0       0
  1373 ;;      Locals:         0       0       0       0       0       0       0       0       0       0       0       0       
      +0       0       0
  1374 ;;      Temps:          5       0       0       0       0       0       0       0       0       0       0       0       
      +0       0       0
  1375 ;;      Totals:         9       0       0       0       0       0       0       0       0       0       0       0       
      +0       0       0
  1376 ;;Total ram usage:        9 bytes
  1377 ;; Hardware stack levels used: 1
  1378 ;; Hardware stack levels required when called: 5
  1379 ;; This function calls:
  1380 ;;		_putch
  1381 ;; This function is called by:
  1382 ;;		_vfpfcnvrt
  1383 ;; This function uses a non-reentrant model
  1384 ;;
  1385                           
  1386                           	psect	text4
  1387   010104                     __ptext4:
  1388                           	callstack 0
  1389   010104                     _fputc:
  1390                           	callstack 22
  1391   010104  5041               	movf	fputc@fp^0,w,c
  1392   010106  1042               	iorwf	(fputc@fp+1)^0,w,c
  1393   010108  B4D8               	btfsc	status,2,c
  1394   01010A  EF89  F080         	goto	u421
  1395   01010E  EF8B  F080         	goto	u420
  1396   010112                     u421:
  1397   010112  EF94  F080         	goto	l1541
  1398   010116                     u420:
  1399   010116  5041               	movf	fputc@fp^0,w,c
  1400   010118  1042               	iorwf	(fputc@fp+1)^0,w,c
  1401   01011A  A4D8               	btfss	status,2,c
  1402   01011C  EF92  F080         	goto	u431
  1403   010120  EF94  F080         	goto	u430
  1404   010124                     u431:
  1405   010124  EF99  F080         	goto	l1543
  1406   010128                     u430:
  1407   010128                     l1541:
  1408   010128  503F               	movf	fputc@c^0,w,c
  1409   01012A  EC82  F082         	call	_putch
  1410   01012E  EFE6  F080         	goto	l1185
  1411   010132                     l1543:
  1412   010132  EE20 F00A          	lfsr	2,10
  1413   010136  5041               	movf	fputc@fp^0,w,c
  1414   010138  26D9               	addwf	fsr2l,f,c
  1415   01013A  5042               	movf	(fputc@fp+1)^0,w,c
  1416   01013C  22DA               	addwfc	fsr2h,f,c
  1417   01013E  50DE               	movf	postinc2,w,c
  1418   010140  10DE               	iorwf	postinc2,w,c
  1419   010142  B4D8               	btfsc	status,2,c
  1420   010144  EFA6  F080         	goto	u441
  1421   010148  EFA8  F080         	goto	u440
  1422   01014C                     u441:
  1423   01014C  EFC3  F080         	goto	l1547
  1424   010150                     u440:
  1425   010150  EE20 F00A          	lfsr	2,10
  1426   010154  5041               	movf	fputc@fp^0,w,c
  1427   010156  26D9               	addwf	fsr2l,f,c
  1428   010158  5042               	movf	(fputc@fp+1)^0,w,c
  1429   01015A  22DA               	addwfc	fsr2h,f,c
  1430   01015C  EE10 F003          	lfsr	1,3
  1431   010160  5041               	movf	fputc@fp^0,w,c
  1432   010162  26E1               	addwf	fsr1l,f,c
  1433   010164  5042               	movf	(fputc@fp+1)^0,w,c
  1434   010166  22E2               	addwfc	fsr1h,f,c
  1435   010168  50DE               	movf	postinc2,w,c
  1436   01016A  5CE6               	subwf	postinc1,w,c
  1437   01016C  50E6               	movf	postinc1,w,c
  1438   01016E  0A80               	xorlw	128
  1439   010170  6E47               	movwf	(??_fputc+4)^0,c
  1440   010172  50DE               	movf	postinc2,w,c
  1441   010174  0A80               	xorlw	128
  1442   010176  5847               	subwfb	(??_fputc+4)^0,w,c
  1443   010178  B0D8               	btfsc	status,0,c
  1444   01017A  EFC1  F080         	goto	u451
  1445   01017E  EFC3  F080         	goto	u450
  1446   010182                     u451:
  1447   010182  EFE6  F080         	goto	l1185
  1448   010186                     u450:
  1449   010186                     l1547:
  1450   010186  EE20 F003          	lfsr	2,3
  1451   01018A  5041               	movf	fputc@fp^0,w,c
  1452   01018C  26D9               	addwf	fsr2l,f,c
  1453   01018E  5042               	movf	(fputc@fp+1)^0,w,c
  1454   010190  22DA               	addwfc	fsr2h,f,c
  1455   010192  CFDE F043          	movff	postinc2,??_fputc
  1456   010196  CFDD F044          	movff	postdec2,??_fputc+1
  1457   01019A  C041  FFD9         	movff	fputc@fp,fsr2l
  1458   01019E  C042  FFDA         	movff	fputc@fp+1,fsr2h
  1459   0101A2  CFDE F045          	movff	postinc2,??_fputc+2
  1460   0101A6  CFDD F046          	movff	postdec2,??_fputc+3
  1461   0101AA  5043               	movf	??_fputc^0,w,c
  1462   0101AC  2445               	addwf	(??_fputc+2)^0,w,c
  1463   0101AE  6ED9               	movwf	fsr2l,c
  1464   0101B0  5044               	movf	(??_fputc+1)^0,w,c
  1465   0101B2  2046               	addwfc	(??_fputc+3)^0,w,c
  1466   0101B4  6EDA               	movwf	fsr2h,c
  1467   0101B6  C03F  FFDF         	movff	fputc@c,indf2
  1468   0101BA  EE20 F003          	lfsr	2,3
  1469   0101BE  5041               	movf	fputc@fp^0,w,c
  1470   0101C0  26D9               	addwf	fsr2l,f,c
  1471   0101C2  5042               	movf	(fputc@fp+1)^0,w,c
  1472   0101C4  22DA               	addwfc	fsr2h,f,c
  1473   0101C6  2ADE               	incf	postinc2,f,c
  1474   0101C8  0E00               	movlw	0
  1475   0101CA  22DD               	addwfc	postdec2,f,c
  1476   0101CC                     l1185:
  1477   0101CC  0012               	return		;funcret
  1478   0101CE                     __end_of_fputc:
  1479                           	callstack 0
  1480                           
  1481 ;; *************** function _putch *****************
  1482 ;; Defined at:
  1483 ;;		line 246 in file "mcc_generated_files/uart/src/eusart2.c"
  1484 ;; Parameters:    Size  Location     Type
  1485 ;;  txData          1    wreg     unsigned char 
  1486 ;; Auto vars:     Size  Location     Type
  1487 ;;  txData          1    3[COMRAM] unsigned char 
  1488 ;; Return value:  Size  Location     Type
  1489 ;;                  1    wreg      void 
  1490 ;; Registers used:
  1491 ;;		wreg, status,2, cstack
  1492 ;; Tracked objects:
  1493 ;;		On entry : 0/0
  1494 ;;		On exit  : 0/0
  1495 ;;		Unchanged: 0/0
  1496 ;; Data sizes:     COMRAM   BANK0   BANK1   BANK2   BANK3   BANK4   BANK5   BANK6   BANK7   BANK8   BANK9  BANK10  BANK1
      +1  BANK12  BANK14
  1497 ;;      Params:         0       0       0       0       0       0       0       0       0       0       0       0       
      +0       0       0
  1498 ;;      Locals:         1       0       0       0       0       0       0       0       0       0       0       0       
      +0       0       0
  1499 ;;      Temps:          0       0       0       0       0       0       0       0       0       0       0       0       
      +0       0       0
  1500 ;;      Totals:         1       0       0       0       0       0       0       0       0       0       0       0       
      +0       0       0
  1501 ;;Total ram usage:        1 bytes
  1502 ;; Hardware stack levels used: 1
  1503 ;; Hardware stack levels required when called: 4
  1504 ;; This function calls:
  1505 ;;		_EUSART2_IsTxReady
  1506 ;;		_EUSART2_Write
  1507 ;; This function is called by:
  1508 ;;		_fputc
  1509 ;; This function uses a non-reentrant model
  1510 ;;
  1511                           
  1512                           	psect	text5
  1513   010504                     __ptext5:
  1514                           	callstack 0
  1515   010504                     _putch:
  1516                           	callstack 22
  1517                           
  1518                           ;incstack = 0
  1519                           ;putch@txData stored from wreg
  1520   010504  6E3E               	movwf	putch@txData^0,c
  1521   010506                     l1531:
  1522   010506  EC06  F082         	call	_EUSART2_IsTxReady	;wreg free
  1523   01050A  0900               	iorlw	0
  1524   01050C  B4D8               	btfsc	status,2,c
  1525   01050E  EF8B  F082         	goto	u411
  1526   010512  EF8D  F082         	goto	u410
  1527   010516                     u411:
  1528   010516  EF83  F082         	goto	l1531
  1529   01051A                     u410:
  1530   01051A                     
  1531                           ;mcc_generated_files/uart/src/eusart2.c: 249:     return EUSART2_Write(txData);;	Return 
      +                          value of _putch is never used
  1532   01051A  503E               	movf	putch@txData^0,w,c
  1533   01051C  ECCF  F082         	call	_EUSART2_Write
  1534   010520  0012               	return		;funcret
  1535   010522                     __end_of_putch:
  1536                           	callstack 0
  1537                           
  1538 ;; *************** function _EUSART2_Write *****************
  1539 ;; Defined at:
  1540 ;;		line 235 in file "mcc_generated_files/uart/src/eusart2.c"
  1541 ;; Parameters:    Size  Location     Type
  1542 ;;  txData          1    wreg     unsigned char 
  1543 ;; Auto vars:     Size  Location     Type
  1544 ;;  txData          1    2[COMRAM] unsigned char 
  1545 ;; Return value:  Size  Location     Type
  1546 ;;                  1    wreg      void 
  1547 ;; Registers used:
  1548 ;;		wreg
  1549 ;; Tracked objects:
  1550 ;;		On entry : 0/0
  1551 ;;		On exit  : 0/0
  1552 ;;		Unchanged: 0/0
  1553 ;; Data sizes:     COMRAM   BANK0   BANK1   BANK2   BANK3   BANK4   BANK5   BANK6   BANK7   BANK8   BANK9  BANK10  BANK1
      +1  BANK12  BANK14
  1554 ;;      Params:         0       0       0       0       0       0       0       0       0       0       0       0       
      +0       0       0
  1555 ;;      Locals:         1       0       0       0       0       0       0       0       0       0       0       0       
      +0       0       0
  1556 ;;      Temps:          0       0       0       0       0       0       0       0       0       0       0       0       
      +0       0       0
  1557 ;;      Totals:         1       0       0       0       0       0       0       0       0       0       0       0       
      +0       0       0
  1558 ;;Total ram usage:        1 bytes
  1559 ;; Hardware stack levels used: 1
  1560 ;; Hardware stack levels required when called: 3
  1561 ;; This function calls:
  1562 ;;		Nothing
  1563 ;; This function is called by:
  1564 ;;		_putch
  1565 ;; This function uses a non-reentrant model
  1566 ;;
  1567                           
  1568                           	psect	text6
  1569   01059E                     __ptext6:
  1570                           	callstack 0
  1571   01059E                     _EUSART2_Write:
  1572                           	callstack 22
  1573                           
  1574                           ;incstack = 0
  1575                           ;EUSART2_Write@txData stored from wreg
  1576   01059E  6E3D               	movwf	EUSART2_Write@txData^0,c
  1577   0105A0                     
  1578                           ;mcc_generated_files/uart/src/eusart2.c: 235: void EUSART2_Write(uint8_t txData);mcc_gen
      +                          erated_files/uart/src/eusart2.c: 236: {;mcc_generated_files/uart/src/eusart2.c: 237:    
      +                           TX2REG = txData;
  1579   0105A0  C03D  FE95         	movff	EUSART2_Write@txData,3733	;volatile
  1580   0105A4  0012               	return		;funcret
  1581   0105A6                     __end_of_EUSART2_Write:
  1582                           	callstack 0
  1583                           
  1584 ;; *************** function _EUSART2_IsTxReady *****************
  1585 ;; Defined at:
  1586 ;;		line 198 in file "mcc_generated_files/uart/src/eusart2.c"
  1587 ;; Parameters:    Size  Location     Type
  1588 ;;		None
  1589 ;; Auto vars:     Size  Location     Type
  1590 ;;		None
  1591 ;; Return value:  Size  Location     Type
  1592 ;;                  1    wreg      _Bool 
  1593 ;; Registers used:
  1594 ;;		wreg, status,2
  1595 ;; Tracked objects:
  1596 ;;		On entry : 0/0
  1597 ;;		On exit  : 0/0
  1598 ;;		Unchanged: 0/0
  1599 ;; Data sizes:     COMRAM   BANK0   BANK1   BANK2   BANK3   BANK4   BANK5   BANK6   BANK7   BANK8   BANK9  BANK10  BANK1
      +1  BANK12  BANK14
  1600 ;;      Params:         0       0       0       0       0       0       0       0       0       0       0       0       
      +0       0       0
  1601 ;;      Locals:         1       0       0       0       0       0       0       0       0       0       0       0       
      +0       0       0
  1602 ;;      Temps:          0       0       0       0       0       0       0       0       0       0       0       0       
      +0       0       0
  1603 ;;      Totals:         1       0       0       0       0       0       0       0       0       0       0       0       
      +0       0       0
  1604 ;;Total ram usage:        1 bytes
  1605 ;; Hardware stack levels used: 1
  1606 ;; Hardware stack levels required when called: 3
  1607 ;; This function calls:
  1608 ;;		Nothing
  1609 ;; This function is called by:
  1610 ;;		_putch
  1611 ;; This function uses a non-reentrant model
  1612 ;;
  1613                           
  1614                           	psect	text7
  1615   01040C                     __ptext7:
  1616                           	callstack 0
  1617   01040C                     _EUSART2_IsTxReady:
  1618                           	callstack 22
  1619   01040C                     
  1620                           ;mcc_generated_files/uart/src/eusart2.c: 200:     return (_Bool)(PIR3bits.TX2IF && TX2ST
      +                          Abits.TXEN);
  1621   01040C  0E00               	movlw	0
  1622   01040E  6E3D               	movwf	_EUSART2_IsTxReady$721^0,c
  1623   010410  010E               	movlb	14	; () banked
  1624   010412  ADC8               	btfss	200,6,b	;volatile
  1625   010414  EF0E  F082         	goto	u391
  1626   010418  EF10  F082         	goto	u390
  1627   01041C                     u391:
  1628   01041C  EF19  F082         	goto	l300
  1629   010420                     u390:
  1630   010420                     
  1631                           ; BSR set to: 14
  1632   010420  AB99               	btfss	153,5,b	;volatile
  1633   010422  EF15  F082         	goto	u401
  1634   010426  EF17  F082         	goto	u400
  1635   01042A                     u401:
  1636   01042A  EF19  F082         	goto	l300
  1637   01042E                     u400:
  1638   01042E                     
  1639                           ; BSR set to: 14
  1640   01042E  0E01               	movlw	1
  1641   010430  6E3D               	movwf	_EUSART2_IsTxReady$721^0,c
  1642   010432                     l300:
  1643                           
  1644                           ; BSR set to: 14
  1645   010432  503D               	movf	_EUSART2_IsTxReady$721^0,w,c
  1646   010434                     
  1647                           ; BSR set to: 14
  1648   010434  0012               	return		;funcret
  1649   010436                     __end_of_EUSART2_IsTxReady:
  1650                           	callstack 0
  1651                           
  1652 ;; *************** function _SYSTEM_Initialize *****************
  1653 ;; Defined at:
  1654 ;;		line 36 in file "mcc_generated_files/system/src/system.c"
  1655 ;; Parameters:    Size  Location     Type
  1656 ;;		None
  1657 ;; Auto vars:     Size  Location     Type
  1658 ;;		None
  1659 ;; Return value:  Size  Location     Type
  1660 ;;                  1    wreg      void 
  1661 ;; Registers used:
  1662 ;;		wreg, status,2, status,0, cstack
  1663 ;; Tracked objects:
  1664 ;;		On entry : 0/0
  1665 ;;		On exit  : 0/0
  1666 ;;		Unchanged: 0/0
  1667 ;; Data sizes:     COMRAM   BANK0   BANK1   BANK2   BANK3   BANK4   BANK5   BANK6   BANK7   BANK8   BANK9  BANK10  BANK1
      +1  BANK12  BANK14
  1668 ;;      Params:         0       0       0       0       0       0       0       0       0       0       0       0       
      +0       0       0
  1669 ;;      Locals:         0       0       0       0       0       0       0       0       0       0       0       0       
      +0       0       0
  1670 ;;      Temps:          0       0       0       0       0       0       0       0       0       0       0       0       
      +0       0       0
  1671 ;;      Totals:         0       0       0       0       0       0       0       0       0       0       0       0       
      +0       0       0
  1672 ;;Total ram usage:        0 bytes
  1673 ;; Hardware stack levels used: 1
  1674 ;; Hardware stack levels required when called: 5
  1675 ;; This function calls:
  1676 ;;		_CLOCK_Initialize
  1677 ;;		_EUSART2_Initialize
  1678 ;;		_HLVD_Initialize
  1679 ;;		_INTERRUPT_Initialize
  1680 ;;		_PIN_MANAGER_Initialize
  1681 ;; This function is called by:
  1682 ;;		_main
  1683 ;; This function uses a non-reentrant model
  1684 ;;
  1685                           
  1686                           	psect	text8
  1687   01053A                     __ptext8:
  1688                           	callstack 0
  1689   01053A                     _SYSTEM_Initialize:
  1690                           	callstack 25
  1691   01053A                     
  1692                           ;mcc_generated_files/system/src/system.c: 38:     CLOCK_Initialize();
  1693   01053A  EC91  F082         	call	_CLOCK_Initialize	;wreg free
  1694                           
  1695                           ;mcc_generated_files/system/src/system.c: 39:     PIN_MANAGER_Initialize();
  1696   01053E  ECE7  F080         	call	_PIN_MANAGER_Initialize	;wreg free
  1697   010542                     
  1698                           ;mcc_generated_files/system/src/system.c: 40:     EUSART2_Initialize();
  1699   010542  ECCF  F081         	call	_EUSART2_Initialize	;wreg free
  1700   010546                     
  1701                           ;mcc_generated_files/system/src/system.c: 41:     HLVD_Initialize();
  1702   010546  EC2E  F082         	call	_HLVD_Initialize	;wreg free
  1703   01054A                     
  1704                           ;mcc_generated_files/system/src/system.c: 42:     INTERRUPT_Initialize();
  1705   01054A  ECAC  F081         	call	_INTERRUPT_Initialize	;wreg free
  1706   01054E  0012               	return		;funcret
  1707   010550                     __end_of_SYSTEM_Initialize:
  1708                           	callstack 0
  1709                           
  1710 ;; *************** function _PIN_MANAGER_Initialize *****************
  1711 ;; Defined at:
  1712 ;;		line 38 in file "mcc_generated_files/system/src/pins.c"
  1713 ;; Parameters:    Size  Location     Type
  1714 ;;		None
  1715 ;; Auto vars:     Size  Location     Type
  1716 ;;		None
  1717 ;; Return value:  Size  Location     Type
  1718 ;;                  1    wreg      void 
  1719 ;; Registers used:
  1720 ;;		wreg, status,2
  1721 ;; Tracked objects:
  1722 ;;		On entry : 0/0
  1723 ;;		On exit  : 0/0
  1724 ;;		Unchanged: 0/0
  1725 ;; Data sizes:     COMRAM   BANK0   BANK1   BANK2   BANK3   BANK4   BANK5   BANK6   BANK7   BANK8   BANK9  BANK10  BANK1
      +1  BANK12  BANK14
  1726 ;;      Params:         0       0       0       0       0       0       0       0       0       0       0       0       
      +0       0       0
  1727 ;;      Locals:         0       0       0       0       0       0       0       0       0       0       0       0       
      +0       0       0
  1728 ;;      Temps:          0       0       0       0       0       0       0       0       0       0       0       0       
      +0       0       0
  1729 ;;      Totals:         0       0       0       0       0       0       0       0       0       0       0       0       
      +0       0       0
  1730 ;;Total ram usage:        0 bytes
  1731 ;; Hardware stack levels used: 1
  1732 ;; Hardware stack levels required when called: 3
  1733 ;; This function calls:
  1734 ;;		Nothing
  1735 ;; This function is called by:
  1736 ;;		_SYSTEM_Initialize
  1737 ;; This function uses a non-reentrant model
  1738 ;;
  1739                           
  1740                           	psect	text9
  1741   0101CE                     __ptext9:
  1742                           	callstack 0
  1743   0101CE                     _PIN_MANAGER_Initialize:
  1744                           	callstack 26
  1745   0101CE                     
  1746                           ;mcc_generated_files/system/src/pins.c: 43:     LATA = 0x0;
  1747   0101CE  0E00               	movlw	0
  1748   0101D0  6E82               	movwf	130,c	;volatile
  1749                           
  1750                           ;mcc_generated_files/system/src/pins.c: 44:     LATB = 0x0;
  1751   0101D2  0E00               	movlw	0
  1752   0101D4  6E83               	movwf	131,c	;volatile
  1753                           
  1754                           ;mcc_generated_files/system/src/pins.c: 45:     LATC = 0x0;
  1755   0101D6  0E00               	movlw	0
  1756   0101D8  6E84               	movwf	132,c	;volatile
  1757                           
  1758                           ;mcc_generated_files/system/src/pins.c: 46:     LATD = 0x0;
  1759   0101DA  0E00               	movlw	0
  1760   0101DC  6E85               	movwf	133,c	;volatile
  1761                           
  1762                           ;mcc_generated_files/system/src/pins.c: 47:     LATE = 0x1;
  1763   0101DE  0E01               	movlw	1
  1764   0101E0  6E86               	movwf	134,c	;volatile
  1765   0101E2                     
  1766                           ;mcc_generated_files/system/src/pins.c: 52:     TRISA = 0xFF;
  1767   0101E2  6887               	setf	135,c	;volatile
  1768   0101E4                     
  1769                           ;mcc_generated_files/system/src/pins.c: 53:     TRISB = 0xFF;
  1770   0101E4  6888               	setf	136,c	;volatile
  1771   0101E6                     
  1772                           ;mcc_generated_files/system/src/pins.c: 54:     TRISC = 0xFF;
  1773   0101E6  6889               	setf	137,c	;volatile
  1774                           
  1775                           ;mcc_generated_files/system/src/pins.c: 55:     TRISD = 0xFE;
  1776   0101E8  0EFE               	movlw	254
  1777   0101EA  6E8A               	movwf	138,c	;volatile
  1778                           
  1779                           ;mcc_generated_files/system/src/pins.c: 56:     TRISE = 0x6;
  1780   0101EC  0E06               	movlw	6
  1781   0101EE  6E8B               	movwf	139,c	;volatile
  1782   0101F0                     
  1783                           ;mcc_generated_files/system/src/pins.c: 61:     ANSELA = 0xFF;
  1784   0101F0  010F               	movlb	15	; () banked
  1785   0101F2  690C               	setf	12,b	;volatile
  1786                           
  1787                           ;mcc_generated_files/system/src/pins.c: 62:     ANSELB = 0x7F;
  1788   0101F4  0E7F               	movlw	127
  1789   0101F6  6F14               	movwf	20,b	;volatile
  1790   0101F8                     
  1791                           ; BSR set to: 15
  1792                           ;mcc_generated_files/system/src/pins.c: 63:     ANSELC = 0xFF;
  1793   0101F8  691C               	setf	28,b	;volatile
  1794                           
  1795                           ;mcc_generated_files/system/src/pins.c: 64:     ANSELD = 0xFE;
  1796   0101FA  0EFE               	movlw	254
  1797   0101FC  6F21               	movwf	33,b	;volatile
  1798                           
  1799                           ;mcc_generated_files/system/src/pins.c: 65:     ANSELE = 0x6;
  1800   0101FE  0E06               	movlw	6
  1801   010200  6F29               	movwf	41,b	;volatile
  1802                           
  1803                           ;mcc_generated_files/system/src/pins.c: 70:     WPUA = 0x0;
  1804   010202  0E00               	movlw	0
  1805   010204  6F0B               	movwf	11,b	;volatile
  1806                           
  1807                           ;mcc_generated_files/system/src/pins.c: 71:     WPUB = 0x0;
  1808   010206  0E00               	movlw	0
  1809   010208  6F13               	movwf	19,b	;volatile
  1810                           
  1811                           ;mcc_generated_files/system/src/pins.c: 72:     WPUC = 0x0;
  1812   01020A  0E00               	movlw	0
  1813   01020C  6F1B               	movwf	27,b	;volatile
  1814                           
  1815                           ;mcc_generated_files/system/src/pins.c: 73:     WPUD = 0x0;
  1816   01020E  0E00               	movlw	0
  1817   010210  6F20               	movwf	32,b	;volatile
  1818                           
  1819                           ;mcc_generated_files/system/src/pins.c: 74:     WPUE = 0x0;
  1820   010212  0E00               	movlw	0
  1821   010214  6F28               	movwf	40,b	;volatile
  1822                           
  1823                           ;mcc_generated_files/system/src/pins.c: 83:     ODCONA = 0x0;
  1824   010216  0E00               	movlw	0
  1825   010218  6F0A               	movwf	10,b	;volatile
  1826                           
  1827                           ;mcc_generated_files/system/src/pins.c: 84:     ODCONB = 0x0;
  1828   01021A  0E00               	movlw	0
  1829   01021C  6F12               	movwf	18,b	;volatile
  1830                           
  1831                           ;mcc_generated_files/system/src/pins.c: 85:     ODCONC = 0x0;
  1832   01021E  0E00               	movlw	0
  1833   010220  6F1A               	movwf	26,b	;volatile
  1834                           
  1835                           ;mcc_generated_files/system/src/pins.c: 86:     ODCOND = 0x0;
  1836   010222  0E00               	movlw	0
  1837   010224  6F1F               	movwf	31,b	;volatile
  1838                           
  1839                           ;mcc_generated_files/system/src/pins.c: 87:     ODCONE = 0x0;
  1840   010226  0E00               	movlw	0
  1841   010228  6F27               	movwf	39,b	;volatile
  1842   01022A                     
  1843                           ; BSR set to: 15
  1844                           ;mcc_generated_files/system/src/pins.c: 92:     SLRCONA = 0xFF;
  1845   01022A  6909               	setf	9,b	;volatile
  1846   01022C                     
  1847                           ; BSR set to: 15
  1848                           ;mcc_generated_files/system/src/pins.c: 93:     SLRCONB = 0xFF;
  1849   01022C  6911               	setf	17,b	;volatile
  1850   01022E                     
  1851                           ; BSR set to: 15
  1852                           ;mcc_generated_files/system/src/pins.c: 94:     SLRCONC = 0xFF;
  1853   01022E  6919               	setf	25,b	;volatile
  1854   010230                     
  1855                           ; BSR set to: 15
  1856                           ;mcc_generated_files/system/src/pins.c: 95:     SLRCOND = 0xFF;
  1857   010230  691E               	setf	30,b	;volatile
  1858                           
  1859                           ;mcc_generated_files/system/src/pins.c: 96:     SLRCONE = 0x7;
  1860   010232  0E07               	movlw	7
  1861   010234  6F26               	movwf	38,b	;volatile
  1862   010236                     
  1863                           ; BSR set to: 15
  1864                           ;mcc_generated_files/system/src/pins.c: 101:     INLVLA = 0xFF;
  1865   010236  6908               	setf	8,b	;volatile
  1866   010238                     
  1867                           ; BSR set to: 15
  1868                           ;mcc_generated_files/system/src/pins.c: 102:     INLVLB = 0xFF;
  1869   010238  6910               	setf	16,b	;volatile
  1870   01023A                     
  1871                           ; BSR set to: 15
  1872                           ;mcc_generated_files/system/src/pins.c: 103:     INLVLC = 0xFF;
  1873   01023A  6918               	setf	24,b	;volatile
  1874   01023C                     
  1875                           ; BSR set to: 15
  1876                           ;mcc_generated_files/system/src/pins.c: 104:     INLVLD = 0xFF;
  1877   01023C  691D               	setf	29,b	;volatile
  1878                           
  1879                           ;mcc_generated_files/system/src/pins.c: 105:     INLVLE = 0xF;
  1880   01023E  0E0F               	movlw	15
  1881   010240  6F25               	movwf	37,b	;volatile
  1882                           
  1883                           ;mcc_generated_files/system/src/pins.c: 109:     RX2PPS = 0xF;
  1884   010242  0E0F               	movlw	15
  1885   010244  010E               	movlb	14	; () banked
  1886   010246  6F88               	movwf	136,b	;volatile
  1887                           
  1888                           ;mcc_generated_files/system/src/pins.c: 110:     RD0PPS = 0x0B;
  1889   010248  0E0B               	movlw	11
  1890   01024A  6FFA               	movwf	250,b	;volatile
  1891                           
  1892                           ;mcc_generated_files/system/src/pins.c: 115:     IOCAP = 0x0;
  1893   01024C  0E00               	movlw	0
  1894   01024E  010F               	movlb	15	; () banked
  1895   010250  6F07               	movwf	7,b	;volatile
  1896                           
  1897                           ;mcc_generated_files/system/src/pins.c: 116:     IOCAN = 0x0;
  1898   010252  0E00               	movlw	0
  1899   010254  6F06               	movwf	6,b	;volatile
  1900                           
  1901                           ;mcc_generated_files/system/src/pins.c: 117:     IOCAF = 0x0;
  1902   010256  0E00               	movlw	0
  1903   010258  6F05               	movwf	5,b	;volatile
  1904                           
  1905                           ;mcc_generated_files/system/src/pins.c: 118:     IOCBP = 0x0;
  1906   01025A  0E00               	movlw	0
  1907   01025C  6F0F               	movwf	15,b	;volatile
  1908                           
  1909                           ;mcc_generated_files/system/src/pins.c: 119:     IOCBN = 0x0;
  1910   01025E  0E00               	movlw	0
  1911   010260  6F0E               	movwf	14,b	;volatile
  1912                           
  1913                           ;mcc_generated_files/system/src/pins.c: 120:     IOCBF = 0x0;
  1914   010262  0E00               	movlw	0
  1915   010264  6F0D               	movwf	13,b	;volatile
  1916                           
  1917                           ;mcc_generated_files/system/src/pins.c: 121:     IOCCP = 0x0;
  1918   010266  0E00               	movlw	0
  1919   010268  6F17               	movwf	23,b	;volatile
  1920                           
  1921                           ;mcc_generated_files/system/src/pins.c: 122:     IOCCN = 0x0;
  1922   01026A  0E00               	movlw	0
  1923   01026C  6F16               	movwf	22,b	;volatile
  1924                           
  1925                           ;mcc_generated_files/system/src/pins.c: 123:     IOCCF = 0x0;
  1926   01026E  0E00               	movlw	0
  1927   010270  6F15               	movwf	21,b	;volatile
  1928                           
  1929                           ;mcc_generated_files/system/src/pins.c: 124:     IOCEP = 0x0;
  1930   010272  0E00               	movlw	0
  1931   010274  6F24               	movwf	36,b	;volatile
  1932                           
  1933                           ;mcc_generated_files/system/src/pins.c: 125:     IOCEN = 0x0;
  1934   010276  0E00               	movlw	0
  1935   010278  6F23               	movwf	35,b	;volatile
  1936                           
  1937                           ;mcc_generated_files/system/src/pins.c: 126:     IOCEF = 0x0;
  1938   01027A  0E00               	movlw	0
  1939   01027C  6F22               	movwf	34,b	;volatile
  1940   01027E                     
  1941                           ; BSR set to: 15
  1942   01027E  0012               	return		;funcret
  1943   010280                     __end_of_PIN_MANAGER_Initialize:
  1944                           	callstack 0
  1945                           
  1946 ;; *************** function _INTERRUPT_Initialize *****************
  1947 ;; Defined at:
  1948 ;;		line 42 in file "mcc_generated_files/system/src/interrupt.c"
  1949 ;; Parameters:    Size  Location     Type
  1950 ;;		None
  1951 ;; Auto vars:     Size  Location     Type
  1952 ;;		None
  1953 ;; Return value:  Size  Location     Type
  1954 ;;                  1    wreg      void 
  1955 ;; Registers used:
  1956 ;;		wreg, status,2, status,0, cstack
  1957 ;; Tracked objects:
  1958 ;;		On entry : 0/0
  1959 ;;		On exit  : 0/0
  1960 ;;		Unchanged: 0/0
  1961 ;; Data sizes:     COMRAM   BANK0   BANK1   BANK2   BANK3   BANK4   BANK5   BANK6   BANK7   BANK8   BANK9  BANK10  BANK1
      +1  BANK12  BANK14
  1962 ;;      Params:         0       0       0       0       0       0       0       0       0       0       0       0       
      +0       0       0
  1963 ;;      Locals:         0       0       0       0       0       0       0       0       0       0       0       0       
      +0       0       0
  1964 ;;      Temps:          0       0       0       0       0       0       0       0       0       0       0       0       
      +0       0       0
  1965 ;;      Totals:         0       0       0       0       0       0       0       0       0       0       0       0       
      +0       0       0
  1966 ;;Total ram usage:        0 bytes
  1967 ;; Hardware stack levels used: 1
  1968 ;; Hardware stack levels required when called: 4
  1969 ;; This function calls:
  1970 ;;		_INT0_SetInterruptHandler
  1971 ;;		_INT1_SetInterruptHandler
  1972 ;;		_INT2_SetInterruptHandler
  1973 ;; This function is called by:
  1974 ;;		_SYSTEM_Initialize
  1975 ;; This function uses a non-reentrant model
  1976 ;;
  1977                           
  1978                           	psect	text10
  1979   010358                     __ptext10:
  1980                           	callstack 0
  1981   010358                     _INTERRUPT_Initialize:
  1982                           	callstack 25
  1983   010358                     
  1984                           ;mcc_generated_files/system/src/interrupt.c: 45:     INTCONbits.IPEN = 0;
  1985   010358  9AF2               	bcf	242,5,c	;volatile
  1986                           
  1987                           ;mcc_generated_files/system/src/interrupt.c: 49:     (PIR0bits.INT0IF = 0);
  1988   01035A  010E               	movlb	14	; () banked
  1989   01035C  91C5               	bcf	197,0,b	;volatile
  1990                           
  1991                           ;mcc_generated_files/system/src/interrupt.c: 50:     (INTCONbits.INT0EDG = 1);
  1992   01035E  80F2               	bsf	242,0,c	;volatile
  1993   010360                     
  1994                           ; BSR set to: 14
  1995                           ;mcc_generated_files/system/src/interrupt.c: 52:     INT0_SetInterruptHandler(INT0_Defau
      +                          ltInterruptHandler);
  1996   010360  0E00               	movlw	0
  1997   010362  6E3D               	movwf	INT0_SetInterruptHandler@InterruptHandler^0,c
  1998   010364  0E00               	movlw	0
  1999   010366  6E3E               	movwf	(INT0_SetInterruptHandler@InterruptHandler+1)^0,c
  2000   010368  0E00               	movlw	0
  2001   01036A  6E3F               	movwf	(INT0_SetInterruptHandler@InterruptHandler+2)^0,c
  2002   01036C  ECC1  F082         	call	_INT0_SetInterruptHandler	;wreg free
  2003   010370                     
  2004                           ;mcc_generated_files/system/src/interrupt.c: 57:     (PIR0bits.INT1IF = 0);
  2005   010370  010E               	movlb	14	; () banked
  2006   010372  93C5               	bcf	197,1,b	;volatile
  2007   010374                     
  2008                           ; BSR set to: 14
  2009                           ;mcc_generated_files/system/src/interrupt.c: 58:     (INTCONbits.INT1EDG = 1);
  2010   010374  82F2               	bsf	242,1,c	;volatile
  2011                           
  2012                           ;mcc_generated_files/system/src/interrupt.c: 60:     INT1_SetInterruptHandler(INT1_Defau
      +                          ltInterruptHandler);
  2013   010376  0E00               	movlw	0
  2014   010378  6E3D               	movwf	INT1_SetInterruptHandler@InterruptHandler^0,c
  2015   01037A  0E00               	movlw	0
  2016   01037C  6E3E               	movwf	(INT1_SetInterruptHandler@InterruptHandler+1)^0,c
  2017   01037E  0E00               	movlw	0
  2018   010380  6E3F               	movwf	(INT1_SetInterruptHandler@InterruptHandler+2)^0,c
  2019   010382  ECBA  F082         	call	_INT1_SetInterruptHandler	;wreg free
  2020   010386                     
  2021                           ;mcc_generated_files/system/src/interrupt.c: 65:     (PIR0bits.INT2IF = 0);
  2022   010386  010E               	movlb	14	; () banked
  2023   010388  95C5               	bcf	197,2,b	;volatile
  2024   01038A                     
  2025                           ; BSR set to: 14
  2026                           ;mcc_generated_files/system/src/interrupt.c: 66:     (INTCONbits.INT2EDG = 1);
  2027   01038A  84F2               	bsf	242,2,c	;volatile
  2028                           
  2029                           ;mcc_generated_files/system/src/interrupt.c: 68:     INT2_SetInterruptHandler(INT2_Defau
      +                          ltInterruptHandler);
  2030   01038C  0E00               	movlw	0
  2031   01038E  6E3D               	movwf	INT2_SetInterruptHandler@InterruptHandler^0,c
  2032   010390  0E00               	movlw	0
  2033   010392  6E3E               	movwf	(INT2_SetInterruptHandler@InterruptHandler+1)^0,c
  2034   010394  0E00               	movlw	0
  2035   010396  6E3F               	movwf	(INT2_SetInterruptHandler@InterruptHandler+2)^0,c
  2036   010398  ECB3  F082         	call	_INT2_SetInterruptHandler	;wreg free
  2037   01039C  0012               	return		;funcret
  2038   01039E                     __end_of_INTERRUPT_Initialize:
  2039                           	callstack 0
  2040                           
  2041 ;; *************** function _INT2_SetInterruptHandler *****************
  2042 ;; Defined at:
  2043 ;;		line 174 in file "mcc_generated_files/system/src/interrupt.c"
  2044 ;; Parameters:    Size  Location     Type
  2045 ;;  InterruptHan    3    2[COMRAM] PTR FTN()void 
  2046 ;;		 -> INT2_DefaultInterruptHandler(1), 
  2047 ;; Auto vars:     Size  Location     Type
  2048 ;;		None
  2049 ;; Return value:  Size  Location     Type
  2050 ;;                  1    wreg      void 
  2051 ;; Registers used:
  2052 ;;		wreg, status,2, status,0
  2053 ;; Tracked objects:
  2054 ;;		On entry : 0/0
  2055 ;;		On exit  : 0/0
  2056 ;;		Unchanged: 0/0
  2057 ;; Data sizes:     COMRAM   BANK0   BANK1   BANK2   BANK3   BANK4   BANK5   BANK6   BANK7   BANK8   BANK9  BANK10  BANK1
      +1  BANK12  BANK14
  2058 ;;      Params:         3       0       0       0       0       0       0       0       0       0       0       0       
      +0       0       0
  2059 ;;      Locals:         0       0       0       0       0       0       0       0       0       0       0       0       
      +0       0       0
  2060 ;;      Temps:          0       0       0       0       0       0       0       0       0       0       0       0       
      +0       0       0
  2061 ;;      Totals:         3       0       0       0       0       0       0       0       0       0       0       0       
      +0       0       0
  2062 ;;Total ram usage:        3 bytes
  2063 ;; Hardware stack levels used: 1
  2064 ;; Hardware stack levels required when called: 3
  2065 ;; This function calls:
  2066 ;;		Nothing
  2067 ;; This function is called by:
  2068 ;;		_INTERRUPT_Initialize
  2069 ;; This function uses a non-reentrant model
  2070 ;;
  2071                           
  2072                           	psect	text11
  2073   010566                     __ptext11:
  2074                           	callstack 0
  2075   010566                     _INT2_SetInterruptHandler:
  2076                           	callstack 25
  2077   010566                     
  2078                           ;mcc_generated_files/system/src/interrupt.c: 175:     INT2_InterruptHandler = InterruptH
      +                          andler;
  2079   010566  C03D  F021         	movff	INT2_SetInterruptHandler@InterruptHandler,_INT2_InterruptHandler
  2080   01056A  C03E  F022         	movff	INT2_SetInterruptHandler@InterruptHandler+1,_INT2_InterruptHandler+1
  2081   01056E  C03F  F023         	movff	INT2_SetInterruptHandler@InterruptHandler+2,_INT2_InterruptHandler+2
  2082   010572  0012               	return		;funcret
  2083   010574                     __end_of_INT2_SetInterruptHandler:
  2084                           	callstack 0
  2085                           
  2086 ;; *************** function _INT1_SetInterruptHandler *****************
  2087 ;; Defined at:
  2088 ;;		line 148 in file "mcc_generated_files/system/src/interrupt.c"
  2089 ;; Parameters:    Size  Location     Type
  2090 ;;  InterruptHan    3    2[COMRAM] PTR FTN()void 
  2091 ;;		 -> INT1_DefaultInterruptHandler(1), 
  2092 ;; Auto vars:     Size  Location     Type
  2093 ;;		None
  2094 ;; Return value:  Size  Location     Type
  2095 ;;                  1    wreg      void 
  2096 ;; Registers used:
  2097 ;;		wreg, status,2, status,0
  2098 ;; Tracked objects:
  2099 ;;		On entry : 0/0
  2100 ;;		On exit  : 0/0
  2101 ;;		Unchanged: 0/0
  2102 ;; Data sizes:     COMRAM   BANK0   BANK1   BANK2   BANK3   BANK4   BANK5   BANK6   BANK7   BANK8   BANK9  BANK10  BANK1
      +1  BANK12  BANK14
  2103 ;;      Params:         3       0       0       0       0       0       0       0       0       0       0       0       
      +0       0       0
  2104 ;;      Locals:         0       0       0       0       0       0       0       0       0       0       0       0       
      +0       0       0
  2105 ;;      Temps:          0       0       0       0       0       0       0       0       0       0       0       0       
      +0       0       0
  2106 ;;      Totals:         3       0       0       0       0       0       0       0       0       0       0       0       
      +0       0       0
  2107 ;;Total ram usage:        3 bytes
  2108 ;; Hardware stack levels used: 1
  2109 ;; Hardware stack levels required when called: 3
  2110 ;; This function calls:
  2111 ;;		Nothing
  2112 ;; This function is called by:
  2113 ;;		_INTERRUPT_Initialize
  2114 ;; This function uses a non-reentrant model
  2115 ;;
  2116                           
  2117                           	psect	text12
  2118   010574                     __ptext12:
  2119                           	callstack 0
  2120   010574                     _INT1_SetInterruptHandler:
  2121                           	callstack 25
  2122   010574                     
  2123                           ;mcc_generated_files/system/src/interrupt.c: 149:     INT1_InterruptHandler = InterruptH
      +                          andler;
  2124   010574  C03D  F024         	movff	INT1_SetInterruptHandler@InterruptHandler,_INT1_InterruptHandler
  2125   010578  C03E  F025         	movff	INT1_SetInterruptHandler@InterruptHandler+1,_INT1_InterruptHandler+1
  2126   01057C  C03F  F026         	movff	INT1_SetInterruptHandler@InterruptHandler+2,_INT1_InterruptHandler+2
  2127   010580  0012               	return		;funcret
  2128   010582                     __end_of_INT1_SetInterruptHandler:
  2129                           	callstack 0
  2130                           
  2131 ;; *************** function _INT0_SetInterruptHandler *****************
  2132 ;; Defined at:
  2133 ;;		line 122 in file "mcc_generated_files/system/src/interrupt.c"
  2134 ;; Parameters:    Size  Location     Type
  2135 ;;  InterruptHan    3    2[COMRAM] PTR FTN()void 
  2136 ;;		 -> INT0_DefaultInterruptHandler(1), 
  2137 ;; Auto vars:     Size  Location     Type
  2138 ;;		None
  2139 ;; Return value:  Size  Location     Type
  2140 ;;                  1    wreg      void 
  2141 ;; Registers used:
  2142 ;;		wreg, status,2, status,0
  2143 ;; Tracked objects:
  2144 ;;		On entry : 0/0
  2145 ;;		On exit  : 0/0
  2146 ;;		Unchanged: 0/0
  2147 ;; Data sizes:     COMRAM   BANK0   BANK1   BANK2   BANK3   BANK4   BANK5   BANK6   BANK7   BANK8   BANK9  BANK10  BANK1
      +1  BANK12  BANK14
  2148 ;;      Params:         3       0       0       0       0       0       0       0       0       0       0       0       
      +0       0       0
  2149 ;;      Locals:         0       0       0       0       0       0       0       0       0       0       0       0       
      +0       0       0
  2150 ;;      Temps:          0       0       0       0       0       0       0       0       0       0       0       0       
      +0       0       0
  2151 ;;      Totals:         3       0       0       0       0       0       0       0       0       0       0       0       
      +0       0       0
  2152 ;;Total ram usage:        3 bytes
  2153 ;; Hardware stack levels used: 1
  2154 ;; Hardware stack levels required when called: 3
  2155 ;; This function calls:
  2156 ;;		Nothing
  2157 ;; This function is called by:
  2158 ;;		_INTERRUPT_Initialize
  2159 ;; This function uses a non-reentrant model
  2160 ;;
  2161                           
  2162                           	psect	text13
  2163   010582                     __ptext13:
  2164                           	callstack 0
  2165   010582                     _INT0_SetInterruptHandler:
  2166                           	callstack 25
  2167   010582                     
  2168                           ;mcc_generated_files/system/src/interrupt.c: 123:     INT0_InterruptHandler = InterruptH
      +                          andler;
  2169   010582  C03D  F027         	movff	INT0_SetInterruptHandler@InterruptHandler,_INT0_InterruptHandler
  2170   010586  C03E  F028         	movff	INT0_SetInterruptHandler@InterruptHandler+1,_INT0_InterruptHandler+1
  2171   01058A  C03F  F029         	movff	INT0_SetInterruptHandler@InterruptHandler+2,_INT0_InterruptHandler+2
  2172   01058E  0012               	return		;funcret
  2173   010590                     __end_of_INT0_SetInterruptHandler:
  2174                           	callstack 0
  2175                           
  2176 ;; *************** function _HLVD_Initialize *****************
  2177 ;; Defined at:
  2178 ;;		line 46 in file "mcc_generated_files/hlvd/src/hlvd.c"
  2179 ;; Parameters:    Size  Location     Type
  2180 ;;		None
  2181 ;; Auto vars:     Size  Location     Type
  2182 ;;		None
  2183 ;; Return value:  Size  Location     Type
  2184 ;;                  1    wreg      void 
  2185 ;; Registers used:
  2186 ;;		wreg, status,2, status,0, cstack
  2187 ;; Tracked objects:
  2188 ;;		On entry : 0/0
  2189 ;;		On exit  : 0/0
  2190 ;;		Unchanged: 0/0
  2191 ;; Data sizes:     COMRAM   BANK0   BANK1   BANK2   BANK3   BANK4   BANK5   BANK6   BANK7   BANK8   BANK9  BANK10  BANK1
      +1  BANK12  BANK14
  2192 ;;      Params:         0       0       0       0       0       0       0       0       0       0       0       0       
      +0       0       0
  2193 ;;      Locals:         0       0       0       0       0       0       0       0       0       0       0       0       
      +0       0       0
  2194 ;;      Temps:          0       0       0       0       0       0       0       0       0       0       0       0       
      +0       0       0
  2195 ;;      Totals:         0       0       0       0       0       0       0       0       0       0       0       0       
      +0       0       0
  2196 ;;Total ram usage:        0 bytes
  2197 ;; Hardware stack levels used: 1
  2198 ;; Hardware stack levels required when called: 4
  2199 ;; This function calls:
  2200 ;;		_HLVD_CallbackRegister
  2201 ;; This function is called by:
  2202 ;;		_SYSTEM_Initialize
  2203 ;; This function uses a non-reentrant model
  2204 ;;
  2205                           
  2206                           	psect	text14
  2207   01045C                     __ptext14:
  2208                           	callstack 0
  2209   01045C                     _HLVD_Initialize:
  2210                           	callstack 25
  2211   01045C                     
  2212                           ;mcc_generated_files/hlvd/src/hlvd.c: 50:     HLVDCON1 = 0x7;
  2213   01045C  0E07               	movlw	7
  2214   01045E  010F               	movlb	15	; () banked
  2215   010460  6F2B               	movwf	43,b	;volatile
  2216                           
  2217                           ;mcc_generated_files/hlvd/src/hlvd.c: 52:     HLVDCON0 = 0x81;
  2218   010462  0E81               	movlw	129
  2219   010464  6F2A               	movwf	42,b	;volatile
  2220   010466                     
  2221                           ; BSR set to: 15
  2222                           ;mcc_generated_files/hlvd/src/hlvd.c: 54:     HLVD_CallbackRegister(HLVD_DefaultCallback
      +                          );
  2223   010466  0EB0               	movlw	low _HLVD_DefaultCallback
  2224   010468  6E3D               	movwf	HLVD_CallbackRegister@CallbackHandler^0,c
  2225   01046A  0E05               	movlw	high _HLVD_DefaultCallback
  2226   01046C  6E3E               	movwf	(HLVD_CallbackRegister@CallbackHandler+1)^0,c
  2227   01046E  0E01               	movlw	low (_HLVD_DefaultCallback shr (0+16))
  2228   010470  6E3F               	movwf	(HLVD_CallbackRegister@CallbackHandler+2)^0,c
  2229   010472  ECC8  F082         	call	_HLVD_CallbackRegister	;wreg free
  2230   010476                     
  2231                           ;mcc_generated_files/hlvd/src/hlvd.c: 55:     PIR2bits.HLVDIF = 0;
  2232   010476  010E               	movlb	14	; () banked
  2233   010478  9FC7               	bcf	199,7,b	;volatile
  2234   01047A                     
  2235                           ; BSR set to: 14
  2236                           ;mcc_generated_files/hlvd/src/hlvd.c: 57:     PIE2bits.HLVDIE = 1;
  2237   01047A  8FBF               	bsf	191,7,b	;volatile
  2238   01047C                     
  2239                           ; BSR set to: 14
  2240   01047C  0012               	return		;funcret
  2241   01047E                     __end_of_HLVD_Initialize:
  2242                           	callstack 0
  2243                           
  2244 ;; *************** function _HLVD_CallbackRegister *****************
  2245 ;; Defined at:
  2246 ;;		line 112 in file "mcc_generated_files/hlvd/src/hlvd.c"
  2247 ;; Parameters:    Size  Location     Type
  2248 ;;  CallbackHand    3    2[COMRAM] PTR FTN()void 
  2249 ;;		 -> HLVD_UserCallback(1), HLVD_DefaultCallback(1), 
  2250 ;; Auto vars:     Size  Location     Type
  2251 ;;		None
  2252 ;; Return value:  Size  Location     Type
  2253 ;;                  1    wreg      void 
  2254 ;; Registers used:
  2255 ;;		wreg, status,2, status,0
  2256 ;; Tracked objects:
  2257 ;;		On entry : 0/0
  2258 ;;		On exit  : 0/0
  2259 ;;		Unchanged: 0/0
  2260 ;; Data sizes:     COMRAM   BANK0   BANK1   BANK2   BANK3   BANK4   BANK5   BANK6   BANK7   BANK8   BANK9  BANK10  BANK1
      +1  BANK12  BANK14
  2261 ;;      Params:         3       0       0       0       0       0       0       0       0       0       0       0       
      +0       0       0
  2262 ;;      Locals:         0       0       0       0       0       0       0       0       0       0       0       0       
      +0       0       0
  2263 ;;      Temps:          0       0       0       0       0       0       0       0       0       0       0       0       
      +0       0       0
  2264 ;;      Totals:         3       0       0       0       0       0       0       0       0       0       0       0       
      +0       0       0
  2265 ;;Total ram usage:        3 bytes
  2266 ;; Hardware stack levels used: 1
  2267 ;; Hardware stack levels required when called: 3
  2268 ;; This function calls:
  2269 ;;		Nothing
  2270 ;; This function is called by:
  2271 ;;		_HLVD_Initialize
  2272 ;;		_main
  2273 ;; This function uses a non-reentrant model
  2274 ;;
  2275                           
  2276                           	psect	text15
  2277   010590                     __ptext15:
  2278                           	callstack 0
  2279   010590                     _HLVD_CallbackRegister:
  2280                           	callstack 25
  2281   010590                     
  2282                           ;mcc_generated_files/hlvd/src/hlvd.c: 112: void HLVD_CallbackRegister(void (* CallbackHa
      +                          ndler)(void));mcc_generated_files/hlvd/src/hlvd.c: 113: {;mcc_generated_files/hlvd/src/h
      +                          lvd.c: 114:     HLVD_Callback = CallbackHandler;
  2283   010590  C03D  F030         	movff	HLVD_CallbackRegister@CallbackHandler,_HLVD_Callback
  2284   010594  C03E  F031         	movff	HLVD_CallbackRegister@CallbackHandler+1,_HLVD_Callback+1
  2285   010598  C03F  F032         	movff	HLVD_CallbackRegister@CallbackHandler+2,_HLVD_Callback+2
  2286   01059C  0012               	return		;funcret
  2287   01059E                     __end_of_HLVD_CallbackRegister:
  2288                           	callstack 0
  2289                           
  2290 ;; *************** function _EUSART2_Initialize *****************
  2291 ;; Defined at:
  2292 ;;		line 94 in file "mcc_generated_files/uart/src/eusart2.c"
  2293 ;; Parameters:    Size  Location     Type
  2294 ;;		None
  2295 ;; Auto vars:     Size  Location     Type
  2296 ;;		None
  2297 ;; Return value:  Size  Location     Type
  2298 ;;                  1    wreg      void 
  2299 ;; Registers used:
  2300 ;;		wreg, status,2, status,0, cstack
  2301 ;; Tracked objects:
  2302 ;;		On entry : 0/0
  2303 ;;		On exit  : 0/0
  2304 ;;		Unchanged: 0/0
  2305 ;; Data sizes:     COMRAM   BANK0   BANK1   BANK2   BANK3   BANK4   BANK5   BANK6   BANK7   BANK8   BANK9  BANK10  BANK1
      +1  BANK12  BANK14
  2306 ;;      Params:         0       0       0       0       0       0       0       0       0       0       0       0       
      +0       0       0
  2307 ;;      Locals:         0       0       0       0       0       0       0       0       0       0       0       0       
      +0       0       0
  2308 ;;      Temps:          0       0       0       0       0       0       0       0       0       0       0       0       
      +0       0       0
  2309 ;;      Totals:         0       0       0       0       0       0       0       0       0       0       0       0       
      +0       0       0
  2310 ;;Total ram usage:        0 bytes
  2311 ;; Hardware stack levels used: 1
  2312 ;; Hardware stack levels required when called: 4
  2313 ;; This function calls:
  2314 ;;		_EUSART2_FramingErrorCallbackRegister
  2315 ;;		_EUSART2_OverrunErrorCallbackRegister
  2316 ;; This function is called by:
  2317 ;;		_SYSTEM_Initialize
  2318 ;; This function uses a non-reentrant model
  2319 ;;
  2320                           
  2321                           	psect	text16
  2322   01039E                     __ptext16:
  2323                           	callstack 0
  2324   01039E                     _EUSART2_Initialize:
  2325                           	callstack 25
  2326   01039E                     
  2327                           ;mcc_generated_files/uart/src/eusart2.c: 99:     BAUD2CON = 0x48;
  2328   01039E  0E48               	movlw	72
  2329   0103A0  010E               	movlb	14	; () banked
  2330   0103A2  6F9A               	movwf	154,b	;volatile
  2331                           
  2332                           ;mcc_generated_files/uart/src/eusart2.c: 101:     RC2STA = 0x90;
  2333   0103A4  0E90               	movlw	144
  2334   0103A6  6F98               	movwf	152,b	;volatile
  2335                           
  2336                           ;mcc_generated_files/uart/src/eusart2.c: 103:     TX2STA = 0x26;
  2337   0103A8  0E26               	movlw	38
  2338   0103AA  6F99               	movwf	153,b	;volatile
  2339                           
  2340                           ;mcc_generated_files/uart/src/eusart2.c: 105:     SP2BRGL = 0x19;
  2341   0103AC  0E19               	movlw	25
  2342   0103AE  6F96               	movwf	150,b	;volatile
  2343                           
  2344                           ;mcc_generated_files/uart/src/eusart2.c: 107:     SP2BRGH = 0x0;
  2345   0103B0  0E00               	movlw	0
  2346   0103B2  6F97               	movwf	151,b	;volatile
  2347   0103B4                     
  2348                           ; BSR set to: 14
  2349                           ;mcc_generated_files/uart/src/eusart2.c: 109:     EUSART2_FramingErrorCallbackRegister(E
      +                          USART2_DefaultFramingErrorCallback);
  2350   0103B4  0E00               	movlw	0
  2351   0103B6  6E3D               	movwf	EUSART2_FramingErrorCallbackRegister@callbackHandler^0,c
  2352   0103B8  0E00               	movlw	0
  2353   0103BA  6E3E               	movwf	(EUSART2_FramingErrorCallbackRegister@callbackHandler+1)^0,c
  2354   0103BC  0E00               	movlw	0
  2355   0103BE  6E3F               	movwf	(EUSART2_FramingErrorCallbackRegister@callbackHandler+2)^0,c
  2356   0103C0  EC50  F082         	call	_EUSART2_FramingErrorCallbackRegister	;wreg free
  2357   0103C4                     
  2358                           ;mcc_generated_files/uart/src/eusart2.c: 110:     EUSART2_OverrunErrorCallbackRegister(E
      +                          USART2_DefaultOverrunErrorCallback);
  2359   0103C4  0E00               	movlw	0
  2360   0103C6  6E3D               	movwf	EUSART2_OverrunErrorCallbackRegister@callbackHandler^0,c
  2361   0103C8  0E00               	movlw	0
  2362   0103CA  6E3E               	movwf	(EUSART2_OverrunErrorCallbackRegister@callbackHandler+1)^0,c
  2363   0103CC  0E00               	movlw	0
  2364   0103CE  6E3F               	movwf	(EUSART2_OverrunErrorCallbackRegister@callbackHandler+2)^0,c
  2365   0103D0  EC3F  F082         	call	_EUSART2_OverrunErrorCallbackRegister	;wreg free
  2366                           
  2367                           ;mcc_generated_files/uart/src/eusart2.c: 111:     eusart2RxLastError.status = 0;
  2368   0103D4  0E00               	movlw	0
  2369   0103D6  6E38               	movwf	(_eusart2RxLastError+1)^0,c	;volatile
  2370   0103D8  0E00               	movlw	0
  2371   0103DA  6E37               	movwf	_eusart2RxLastError^0,c	;volatile
  2372   0103DC  0012               	return		;funcret
  2373   0103DE                     __end_of_EUSART2_Initialize:
  2374                           	callstack 0
  2375                           
  2376 ;; *************** function _EUSART2_OverrunErrorCallbackRegister *****************
  2377 ;; Defined at:
  2378 ;;		line 272 in file "mcc_generated_files/uart/src/eusart2.c"
  2379 ;; Parameters:    Size  Location     Type
  2380 ;;  callbackHand    3    2[COMRAM] PTR FTN()void 
  2381 ;;		 -> EUSART2_DefaultOverrunErrorCallback(1), 
  2382 ;; Auto vars:     Size  Location     Type
  2383 ;;		None
  2384 ;; Return value:  Size  Location     Type
  2385 ;;                  1    wreg      void 
  2386 ;; Registers used:
  2387 ;;		wreg, status,2, status,0
  2388 ;; Tracked objects:
  2389 ;;		On entry : 0/0
  2390 ;;		On exit  : 0/0
  2391 ;;		Unchanged: 0/0
  2392 ;; Data sizes:     COMRAM   BANK0   BANK1   BANK2   BANK3   BANK4   BANK5   BANK6   BANK7   BANK8   BANK9  BANK10  BANK1
      +1  BANK12  BANK14
  2393 ;;      Params:         3       0       0       0       0       0       0       0       0       0       0       0       
      +0       0       0
  2394 ;;      Locals:         0       0       0       0       0       0       0       0       0       0       0       0       
      +0       0       0
  2395 ;;      Temps:          0       0       0       0       0       0       0       0       0       0       0       0       
      +0       0       0
  2396 ;;      Totals:         3       0       0       0       0       0       0       0       0       0       0       0       
      +0       0       0
  2397 ;;Total ram usage:        3 bytes
  2398 ;; Hardware stack levels used: 1
  2399 ;; Hardware stack levels required when called: 3
  2400 ;; This function calls:
  2401 ;;		Nothing
  2402 ;; This function is called by:
  2403 ;;		_EUSART2_Initialize
  2404 ;; This function uses a non-reentrant model
  2405 ;;
  2406                           
  2407                           	psect	text17
  2408   01047E                     __ptext17:
  2409                           	callstack 0
  2410   01047E                     _EUSART2_OverrunErrorCallbackRegister:
  2411                           	callstack 25
  2412   01047E                     
  2413                           ;mcc_generated_files/uart/src/eusart2.c: 272: void EUSART2_OverrunErrorCallbackRegister(
      +                          void (* callbackHandler)(void));mcc_generated_files/uart/src/eusart2.c: 273: {;mcc_gener
      +                          ated_files/uart/src/eusart2.c: 274:     if(((void*)0) != callbackHandler)
  2414   01047E  503D               	movf	EUSART2_OverrunErrorCallbackRegister@callbackHandler^0,w,c
  2415   010480  103E               	iorwf	(EUSART2_OverrunErrorCallbackRegister@callbackHandler+1)^0,w,c
  2416   010482  103F               	iorwf	(EUSART2_OverrunErrorCallbackRegister@callbackHandler+2)^0,w,c
  2417   010484  B4D8               	btfsc	status,2,c
  2418   010486  EF47  F082         	goto	u471
  2419   01048A  EF49  F082         	goto	u470
  2420   01048E                     u471:
  2421   01048E  EF4F  F082         	goto	l343
  2422   010492                     u470:
  2423   010492                     
  2424                           ;mcc_generated_files/uart/src/eusart2.c: 275:     {;mcc_generated_files/uart/src/eusart2
      +                          .c: 276:         EUSART2_OverrunErrorHandler = callbackHandler;
  2425   010492  C03D  F02A         	movff	EUSART2_OverrunErrorCallbackRegister@callbackHandler,_EUSART2_OverrunErrorHandler
  2426   010496  C03E  F02B         	movff	EUSART2_OverrunErrorCallbackRegister@callbackHandler+1,_EUSART2_OverrunErrorHandl
      +                          er+1
  2427   01049A  C03F  F02C         	movff	EUSART2_OverrunErrorCallbackRegister@callbackHandler+2,_EUSART2_OverrunErrorHandl
      +                          er+2
  2428   01049E                     l343:
  2429   01049E  0012               	return		;funcret
  2430   0104A0                     __end_of_EUSART2_OverrunErrorCallbackRegister:
  2431                           	callstack 0
  2432                           
  2433 ;; *************** function _EUSART2_FramingErrorCallbackRegister *****************
  2434 ;; Defined at:
  2435 ;;		line 264 in file "mcc_generated_files/uart/src/eusart2.c"
  2436 ;; Parameters:    Size  Location     Type
  2437 ;;  callbackHand    3    2[COMRAM] PTR FTN()void 
  2438 ;;		 -> EUSART2_DefaultFramingErrorCallback(1), 
  2439 ;; Auto vars:     Size  Location     Type
  2440 ;;		None
  2441 ;; Return value:  Size  Location     Type
  2442 ;;                  1    wreg      void 
  2443 ;; Registers used:
  2444 ;;		wreg, status,2, status,0
  2445 ;; Tracked objects:
  2446 ;;		On entry : 0/0
  2447 ;;		On exit  : 0/0
  2448 ;;		Unchanged: 0/0
  2449 ;; Data sizes:     COMRAM   BANK0   BANK1   BANK2   BANK3   BANK4   BANK5   BANK6   BANK7   BANK8   BANK9  BANK10  BANK1
      +1  BANK12  BANK14
  2450 ;;      Params:         3       0       0       0       0       0       0       0       0       0       0       0       
      +0       0       0
  2451 ;;      Locals:         0       0       0       0       0       0       0       0       0       0       0       0       
      +0       0       0
  2452 ;;      Temps:          0       0       0       0       0       0       0       0       0       0       0       0       
      +0       0       0
  2453 ;;      Totals:         3       0       0       0       0       0       0       0       0       0       0       0       
      +0       0       0
  2454 ;;Total ram usage:        3 bytes
  2455 ;; Hardware stack levels used: 1
  2456 ;; Hardware stack levels required when called: 3
  2457 ;; This function calls:
  2458 ;;		Nothing
  2459 ;; This function is called by:
  2460 ;;		_EUSART2_Initialize
  2461 ;; This function uses a non-reentrant model
  2462 ;;
  2463                           
  2464                           	psect	text18
  2465   0104A0                     __ptext18:
  2466                           	callstack 0
  2467   0104A0                     _EUSART2_FramingErrorCallbackRegister:
  2468                           	callstack 25
  2469   0104A0                     
  2470                           ;mcc_generated_files/uart/src/eusart2.c: 264: void EUSART2_FramingErrorCallbackRegister(
      +                          void (* callbackHandler)(void));mcc_generated_files/uart/src/eusart2.c: 265: {;mcc_gener
      +                          ated_files/uart/src/eusart2.c: 266:     if(((void*)0) != callbackHandler)
  2471   0104A0  503D               	movf	EUSART2_FramingErrorCallbackRegister@callbackHandler^0,w,c
  2472   0104A2  103E               	iorwf	(EUSART2_FramingErrorCallbackRegister@callbackHandler+1)^0,w,c
  2473   0104A4  103F               	iorwf	(EUSART2_FramingErrorCallbackRegister@callbackHandler+2)^0,w,c
  2474   0104A6  B4D8               	btfsc	status,2,c
  2475   0104A8  EF58  F082         	goto	u461
  2476   0104AC  EF5A  F082         	goto	u460
  2477   0104B0                     u461:
  2478   0104B0  EF60  F082         	goto	l339
  2479   0104B4                     u460:
  2480   0104B4                     
  2481                           ;mcc_generated_files/uart/src/eusart2.c: 267:     {;mcc_generated_files/uart/src/eusart2
      +                          .c: 268:         EUSART2_FramingErrorHandler = callbackHandler;
  2482   0104B4  C03D  F02D         	movff	EUSART2_FramingErrorCallbackRegister@callbackHandler,_EUSART2_FramingErrorHandler
  2483   0104B8  C03E  F02E         	movff	EUSART2_FramingErrorCallbackRegister@callbackHandler+1,_EUSART2_FramingErrorHandl
      +                          er+1
  2484   0104BC  C03F  F02F         	movff	EUSART2_FramingErrorCallbackRegister@callbackHandler+2,_EUSART2_FramingErrorHandl
      +                          er+2
  2485   0104C0                     l339:
  2486   0104C0  0012               	return		;funcret
  2487   0104C2                     __end_of_EUSART2_FramingErrorCallbackRegister:
  2488                           	callstack 0
  2489                           
  2490 ;; *************** function _CLOCK_Initialize *****************
  2491 ;; Defined at:
  2492 ;;		line 37 in file "mcc_generated_files/system/src/clock.c"
  2493 ;; Parameters:    Size  Location     Type
  2494 ;;		None
  2495 ;; Auto vars:     Size  Location     Type
  2496 ;;		None
  2497 ;; Return value:  Size  Location     Type
  2498 ;;                  1    wreg      void 
  2499 ;; Registers used:
  2500 ;;		wreg, status,2
  2501 ;; Tracked objects:
  2502 ;;		On entry : 0/0
  2503 ;;		On exit  : 0/0
  2504 ;;		Unchanged: 0/0
  2505 ;; Data sizes:     COMRAM   BANK0   BANK1   BANK2   BANK3   BANK4   BANK5   BANK6   BANK7   BANK8   BANK9  BANK10  BANK1
      +1  BANK12  BANK14
  2506 ;;      Params:         0       0       0       0       0       0       0       0       0       0       0       0       
      +0       0       0
  2507 ;;      Locals:         0       0       0       0       0       0       0       0       0       0       0       0       
      +0       0       0
  2508 ;;      Temps:          0       0       0       0       0       0       0       0       0       0       0       0       
      +0       0       0
  2509 ;;      Totals:         0       0       0       0       0       0       0       0       0       0       0       0       
      +0       0       0
  2510 ;;Total ram usage:        0 bytes
  2511 ;; Hardware stack levels used: 1
  2512 ;; Hardware stack levels required when called: 3
  2513 ;; This function calls:
  2514 ;;		Nothing
  2515 ;; This function is called by:
  2516 ;;		_SYSTEM_Initialize
  2517 ;; This function uses a non-reentrant model
  2518 ;;
  2519                           
  2520                           	psect	text19
  2521   010522                     __ptext19:
  2522                           	callstack 0
  2523   010522                     _CLOCK_Initialize:
  2524                           	callstack 26
  2525   010522                     
  2526                           ;mcc_generated_files/system/src/clock.c: 41:     OSCCON1 = 0x60;
  2527   010522  0E60               	movlw	96
  2528   010524  010E               	movlb	14	; () banked
  2529   010526  6FD3               	movwf	211,b	;volatile
  2530                           
  2531                           ;mcc_generated_files/system/src/clock.c: 43:     OSCCON3 = 0x0;
  2532   010528  0E00               	movlw	0
  2533   01052A  6FD5               	movwf	213,b	;volatile
  2534                           
  2535                           ;mcc_generated_files/system/src/clock.c: 45:     OSCEN = 0x0;
  2536   01052C  0E00               	movlw	0
  2537   01052E  6FD7               	movwf	215,b	;volatile
  2538                           
  2539                           ;mcc_generated_files/system/src/clock.c: 47:     OSCFRQ = 0x0;
  2540   010530  0E00               	movlw	0
  2541   010532  6FD9               	movwf	217,b	;volatile
  2542                           
  2543                           ;mcc_generated_files/system/src/clock.c: 49:     OSCTUNE = 0x0;
  2544   010534  0E00               	movlw	0
  2545   010536  6FD8               	movwf	216,b	;volatile
  2546   010538                     
  2547                           ; BSR set to: 14
  2548   010538  0012               	return		;funcret
  2549   01053A                     __end_of_CLOCK_Initialize:
  2550                           	callstack 0
  2551                           
  2552 ;; *************** function _HLVD_TripPointSetup *****************
  2553 ;; Defined at:
  2554 ;;		line 88 in file "mcc_generated_files/hlvd/src/hlvd.c"
  2555 ;; Parameters:    Size  Location     Type
  2556 ;;  Negative_Tri    1    wreg     _Bool 
  2557 ;;  Positive_Tri    1    2[COMRAM] _Bool 
  2558 ;;  trip_points     1    3[COMRAM] enum E12686
  2559 ;; Auto vars:     Size  Location     Type
  2560 ;;  Negative_Tri    1    4[COMRAM] _Bool 
  2561 ;; Return value:  Size  Location     Type
  2562 ;;                  1    wreg      void 
  2563 ;; Registers used:
  2564 ;;		wreg
  2565 ;; Tracked objects:
  2566 ;;		On entry : 0/0
  2567 ;;		On exit  : 0/0
  2568 ;;		Unchanged: 0/0
  2569 ;; Data sizes:     COMRAM   BANK0   BANK1   BANK2   BANK3   BANK4   BANK5   BANK6   BANK7   BANK8   BANK9  BANK10  BANK1
      +1  BANK12  BANK14
  2570 ;;      Params:         2       0       0       0       0       0       0       0       0       0       0       0       
      +0       0       0
  2571 ;;      Locals:         1       0       0       0       0       0       0       0       0       0       0       0       
      +0       0       0
  2572 ;;      Temps:          0       0       0       0       0       0       0       0       0       0       0       0       
      +0       0       0
  2573 ;;      Totals:         3       0       0       0       0       0       0       0       0       0       0       0       
      +0       0       0
  2574 ;;Total ram usage:        3 bytes
  2575 ;; Hardware stack levels used: 1
  2576 ;; Hardware stack levels required when called: 3
  2577 ;; This function calls:
  2578 ;;		Nothing
  2579 ;; This function is called by:
  2580 ;;		_main
  2581 ;; This function uses a non-reentrant model
  2582 ;;
  2583                           
  2584                           	psect	text20
  2585   0104C2                     __ptext20:
  2586                           	callstack 0
  2587   0104C2                     _HLVD_TripPointSetup:
  2588                           	callstack 27
  2589                           
  2590                           ; BSR set to: 14
  2591                           ;incstack = 0
  2592                           ;HLVD_TripPointSetup@Negative_Trip stored from wreg
  2593   0104C2  6E3F               	movwf	HLVD_TripPointSetup@Negative_Trip^0,c
  2594   0104C4                     
  2595                           ;mcc_generated_files/hlvd/src/hlvd.c: 88: void HLVD_TripPointSetup(_Bool Negative_Trip, 
      +                          _Bool Positive_Trip, HLVD_TRIP_POINTS trip_points);mcc_generated_files/hlvd/src/hlvd.c: 
      +                          89: {;mcc_generated_files/hlvd/src/hlvd.c: 91:    HLVDCON0bits.HLVDINTL = Negative_Trip;
  2596   0104C4  B03F               	btfsc	HLVD_TripPointSetup@Negative_Trip^0,0,c
  2597   0104C6  D003               	bra	u505
  2598   0104C8  010F               	movlb	15	; () banked
  2599   0104CA  912A               	bcf	42,0,b	;volatile
  2600   0104CC  D002               	bra	u506
  2601   0104CE                     u505:
  2602   0104CE  010F               	movlb	15	; () banked
  2603   0104D0  812A               	bsf	42,0,b	;volatile
  2604   0104D2                     u506:
  2605   0104D2                     
  2606                           ; BSR set to: 15
  2607                           ;mcc_generated_files/hlvd/src/hlvd.c: 93:    HLVDCON0bits.HLVDINTH = Positive_Trip;
  2608   0104D2  B03D               	btfsc	HLVD_TripPointSetup@Positive_Trip^0,0,c
  2609   0104D4  D002               	bra	u515
  2610   0104D6  932A               	bcf	42,1,b	;volatile
  2611   0104D8  D002               	bra	u516
  2612   0104DA                     u515:
  2613   0104DA  010F               	movlb	15	; () banked
  2614   0104DC  832A               	bsf	42,1,b	;volatile
  2615   0104DE                     u516:
  2616   0104DE                     
  2617                           ; BSR set to: 15
  2618                           ;mcc_generated_files/hlvd/src/hlvd.c: 95:    HLVDCON1 = trip_points;
  2619   0104DE  C03E  FF2B         	movff	HLVD_TripPointSetup@trip_points,3883	;volatile
  2620   0104E2                     
  2621                           ; BSR set to: 15
  2622   0104E2  0012               	return		;funcret
  2623   0104E4                     __end_of_HLVD_TripPointSetup:
  2624                           	callstack 0
  2625                           
  2626 ;; *************** function _HLVD_OutputStatusGet *****************
  2627 ;; Defined at:
  2628 ;;		line 98 in file "mcc_generated_files/hlvd/src/hlvd.c"
  2629 ;; Parameters:    Size  Location     Type
  2630 ;;		None
  2631 ;; Auto vars:     Size  Location     Type
  2632 ;;		None
  2633 ;; Return value:  Size  Location     Type
  2634 ;;                  1    wreg      _Bool 
  2635 ;; Registers used:
  2636 ;;		wreg
  2637 ;; Tracked objects:
  2638 ;;		On entry : 0/0
  2639 ;;		On exit  : 0/0
  2640 ;;		Unchanged: 0/0
  2641 ;; Data sizes:     COMRAM   BANK0   BANK1   BANK2   BANK3   BANK4   BANK5   BANK6   BANK7   BANK8   BANK9  BANK10  BANK1
      +1  BANK12  BANK14
  2642 ;;      Params:         0       0       0       0       0       0       0       0       0       0       0       0       
      +0       0       0
  2643 ;;      Locals:         0       0       0       0       0       0       0       0       0       0       0       0       
      +0       0       0
  2644 ;;      Temps:          0       0       0       0       0       0       0       0       0       0       0       0       
      +0       0       0
  2645 ;;      Totals:         0       0       0       0       0       0       0       0       0       0       0       0       
      +0       0       0
  2646 ;;Total ram usage:        0 bytes
  2647 ;; Hardware stack levels used: 1
  2648 ;; Hardware stack levels required when called: 3
  2649 ;; This function calls:
  2650 ;;		Nothing
  2651 ;; This function is called by:
  2652 ;;		_main
  2653 ;; This function uses a non-reentrant model
  2654 ;;
  2655                           
  2656                           	psect	text21
  2657   010550                     __ptext21:
  2658                           	callstack 0
  2659   010550                     _HLVD_OutputStatusGet:
  2660                           	callstack 27
  2661   010550                     
  2662                           ;mcc_generated_files/hlvd/src/hlvd.c: 101:     return(HLVDCON0bits.HLVDOUT);
  2663   010550  010F               	movlb	15	; () banked
  2664   010552  BB2A               	btfsc	42,5,b	;volatile
  2665   010554  EFAE  F082         	goto	u141
  2666   010558  EFB1  F082         	goto	u140
  2667   01055C                     u141:
  2668   01055C  0E01               	movlw	1
  2669   01055E  EFB2  F082         	goto	u146
  2670   010562                     u140:
  2671   010562  0E00               	movlw	0
  2672   010564                     u146:
  2673   010564                     
  2674                           ; BSR set to: 15
  2675   010564  0012               	return		;funcret
  2676   010566                     __end_of_HLVD_OutputStatusGet:
  2677                           	callstack 0
  2678                           
  2679 ;; *************** function _INTERRUPT_InterruptManager *****************
  2680 ;; Defined at:
  2681 ;;		line 80 in file "mcc_generated_files/system/src/interrupt.c"
  2682 ;; Parameters:    Size  Location     Type
  2683 ;;		None
  2684 ;; Auto vars:     Size  Location     Type
  2685 ;;		None
  2686 ;; Return value:  Size  Location     Type
  2687 ;;                  1    wreg      void 
  2688 ;; Registers used:
  2689 ;;		wreg, status,2, pcl, pclath, pclatu, tosl, cstack
  2690 ;; Tracked objects:
  2691 ;;		On entry : 0/0
  2692 ;;		On exit  : 0/0
  2693 ;;		Unchanged: 0/0
  2694 ;; Data sizes:     COMRAM   BANK0   BANK1   BANK2   BANK3   BANK4   BANK5   BANK6   BANK7   BANK8   BANK9  BANK10  BANK1
      +1  BANK12  BANK14
  2695 ;;      Params:         0       0       0       0       0       0       0       0       0       0       0       0       
      +0       0       0
  2696 ;;      Locals:         0       0       0       0       0       0       0       0       0       0       0       0       
      +0       0       0
  2697 ;;      Temps:          2       0       0       0       0       0       0       0       0       0       0       0       
      +0       0       0
  2698 ;;      Totals:         2       0       0       0       0       0       0       0       0       0       0       0       
      +0       0       0
  2699 ;;Total ram usage:        2 bytes
  2700 ;; Hardware stack levels used: 1
  2701 ;; Hardware stack levels required when called: 2
  2702 ;; This function calls:
  2703 ;;		_HLVD_ISR
  2704 ;;		_PIN_MANAGER_IOC
  2705 ;; This function is called by:
  2706 ;;		Interrupt level 2
  2707 ;; This function uses a non-reentrant model
  2708 ;;
  2709                           
  2710                           	psect	intcode
  2711   000008                     __pintcode:
  2712                           	callstack 0
  2713   000008                     _INTERRUPT_InterruptManager:
  2714                           	callstack 22
  2715                           
  2716                           ; BSR set to: 15
  2717                           ;incstack = 0
  2718   000008  825C               	bsf	int$flags,1,c	;set compiler interrupt flag (level 2)
  2719   00000A  CFFA F03B          	movff	pclath,??_INTERRUPT_InterruptManager
  2720   00000E  CFFB F03C          	movff	pclatu,??_INTERRUPT_InterruptManager+1
  2721   000012                     
  2722                           ;mcc_generated_files/system/src/interrupt.c: 83:     if(PIE0bits.IOCIE == 1 && PIR0bits.
      +                          IOCIF == 1)
  2723   000012  010E               	movlb	14	; () banked
  2724   000014  A9BD               	btfss	189,4,b	;volatile
  2725   000016  EF0F  F000         	goto	i2u28_41
  2726   00001A  EF11  F000         	goto	i2u28_40
  2727   00001E                     i2u28_41:
  2728   00001E  EF1C  F000         	goto	i2l389
  2729   000022                     i2u28_40:
  2730   000022                     
  2731                           ; BSR set to: 14
  2732   000022  A9C5               	btfss	197,4,b	;volatile
  2733   000024  EF16  F000         	goto	i2u29_41
  2734   000028  EF18  F000         	goto	i2u29_40
  2735   00002C                     i2u29_41:
  2736   00002C  EF1C  F000         	goto	i2l389
  2737   000030                     i2u29_40:
  2738   000030                     
  2739                           ; BSR set to: 14
  2740                           ;mcc_generated_files/system/src/interrupt.c: 84:     {;mcc_generated_files/system/src/in
      +                          terrupt.c: 85:         PIN_MANAGER_IOC();
  2741   000030  ECD7  F082         	call	_PIN_MANAGER_IOC	;wreg free
  2742                           
  2743                           ;mcc_generated_files/system/src/interrupt.c: 86:     }
  2744   000034  EF35  F000         	goto	i2l395
  2745   000038                     i2l389:
  2746                           
  2747                           ; BSR set to: 14
  2748   000038  ACF2               	btfss	242,6,c	;volatile
  2749   00003A  EF21  F000         	goto	i2u30_41
  2750   00003E  EF23  F000         	goto	i2u30_40
  2751   000042                     i2u30_41:
  2752   000042  EF35  F000         	goto	i2l395
  2753   000046                     i2u30_40:
  2754   000046                     
  2755                           ; BSR set to: 14
  2756                           ;mcc_generated_files/system/src/interrupt.c: 88:     {;mcc_generated_files/system/src/in
      +                          terrupt.c: 89:         if(PIE2bits.HLVDIE == 1 && PIR2bits.HLVDIF == 1)
  2757   000046  AFBF               	btfss	191,7,b	;volatile
  2758   000048  EF28  F000         	goto	i2u31_41
  2759   00004C  EF2A  F000         	goto	i2u31_40
  2760   000050                     i2u31_41:
  2761   000050  EF35  F000         	goto	i2l394
  2762   000054                     i2u31_40:
  2763   000054                     
  2764                           ; BSR set to: 14
  2765   000054  AFC7               	btfss	199,7,b	;volatile
  2766   000056  EF2F  F000         	goto	i2u32_41
  2767   00005A  EF31  F000         	goto	i2u32_40
  2768   00005E                     i2u32_41:
  2769   00005E  EF35  F000         	goto	i2l394
  2770   000062                     i2u32_40:
  2771   000062                     
  2772                           ; BSR set to: 14
  2773                           ;mcc_generated_files/system/src/interrupt.c: 90:         {;mcc_generated_files/system/sr
      +                          c/interrupt.c: 91:             HLVD_ISR();
  2774   000062  EC72  F082         	call	_HLVD_ISR	;wreg free
  2775                           
  2776                           ;mcc_generated_files/system/src/interrupt.c: 92:         }
  2777   000066  EF35  F000         	goto	i2l395
  2778   00006A                     i2l394:
  2779   00006A                     i2l395:
  2780   00006A  C03C  FFFB         	movff	??_INTERRUPT_InterruptManager+1,pclatu
  2781   00006E  C03B  FFFA         	movff	??_INTERRUPT_InterruptManager,pclath
  2782   000072  925C               	bcf	int$flags,1,c	;clear compiler interrupt flag (level 2)
  2783   000074  0011               	retfie		f
  2784   000076                     __end_of_INTERRUPT_InterruptManager:
  2785                           	callstack 0
  2786                           
  2787 ;; *************** function _PIN_MANAGER_IOC *****************
  2788 ;; Defined at:
  2789 ;;		line 131 in file "mcc_generated_files/system/src/pins.c"
  2790 ;; Parameters:    Size  Location     Type
  2791 ;;		None
  2792 ;; Auto vars:     Size  Location     Type
  2793 ;;		None
  2794 ;; Return value:  Size  Location     Type
  2795 ;;                  1    wreg      void 
  2796 ;; Registers used:
  2797 ;;		None
  2798 ;; Tracked objects:
  2799 ;;		On entry : 0/0
  2800 ;;		On exit  : 0/0
  2801 ;;		Unchanged: 0/0
  2802 ;; Data sizes:     COMRAM   BANK0   BANK1   BANK2   BANK3   BANK4   BANK5   BANK6   BANK7   BANK8   BANK9  BANK10  BANK1
      +1  BANK12  BANK14
  2803 ;;      Params:         0       0       0       0       0       0       0       0       0       0       0       0       
      +0       0       0
  2804 ;;      Locals:         0       0       0       0       0       0       0       0       0       0       0       0       
      +0       0       0
  2805 ;;      Temps:          0       0       0       0       0       0       0       0       0       0       0       0       
      +0       0       0
  2806 ;;      Totals:         0       0       0       0       0       0       0       0       0       0       0       0       
      +0       0       0
  2807 ;;Total ram usage:        0 bytes
  2808 ;; Hardware stack levels used: 1
  2809 ;; This function calls:
  2810 ;;		Nothing
  2811 ;; This function is called by:
  2812 ;;		_INTERRUPT_InterruptManager
  2813 ;; This function uses a non-reentrant model
  2814 ;;
  2815                           
  2816                           	psect	text23
  2817   0105AE                     __ptext23:
  2818                           	callstack 0
  2819   0105AE                     _PIN_MANAGER_IOC:
  2820                           	callstack 23
  2821   0105AE  0012               	return		;funcret
  2822   0105B0                     __end_of_PIN_MANAGER_IOC:
  2823                           	callstack 0
  2824                           
  2825 ;; *************** function _HLVD_ISR *****************
  2826 ;; Defined at:
  2827 ;;		line 104 in file "mcc_generated_files/hlvd/src/hlvd.c"
  2828 ;; Parameters:    Size  Location     Type
  2829 ;;		None
  2830 ;; Auto vars:     Size  Location     Type
  2831 ;;		None
  2832 ;; Return value:  Size  Location     Type
  2833 ;;                  1    wreg      void 
  2834 ;; Registers used:
  2835 ;;		wreg, status,2, pcl, pclath, pclatu, tosl, cstack
  2836 ;; Tracked objects:
  2837 ;;		On entry : 0/0
  2838 ;;		On exit  : 0/0
  2839 ;;		Unchanged: 0/0
  2840 ;; Data sizes:     COMRAM   BANK0   BANK1   BANK2   BANK3   BANK4   BANK5   BANK6   BANK7   BANK8   BANK9  BANK10  BANK1
      +1  BANK12  BANK14
  2841 ;;      Params:         0       0       0       0       0       0       0       0       0       0       0       0       
      +0       0       0
  2842 ;;      Locals:         0       0       0       0       0       0       0       0       0       0       0       0       
      +0       0       0
  2843 ;;      Temps:          0       0       0       0       0       0       0       0       0       0       0       0       
      +0       0       0
  2844 ;;      Totals:         0       0       0       0       0       0       0       0       0       0       0       0       
      +0       0       0
  2845 ;;Total ram usage:        0 bytes
  2846 ;; Hardware stack levels used: 1
  2847 ;; Hardware stack levels required when called: 1
  2848 ;; This function calls:
  2849 ;;		NULL
  2850 ;;		_HLVD_DefaultCallback
  2851 ;;		_HLVD_UserCallback
  2852 ;; This function is called by:
  2853 ;;		_INTERRUPT_InterruptManager
  2854 ;; This function uses a non-reentrant model
  2855 ;;
  2856                           
  2857                           	psect	text24
  2858   0104E4                     __ptext24:
  2859                           	callstack 0
  2860   0104E4                     _HLVD_ISR:
  2861                           	callstack 22
  2862   0104E4                     
  2863                           ;mcc_generated_files/hlvd/src/hlvd.c: 107:     PIR2bits.HLVDIF = 0;
  2864   0104E4  010E               	movlb	14	; () banked
  2865   0104E6  9FC7               	bcf	199,7,b	;volatile
  2866   0104E8                     
  2867                           ; BSR set to: 14
  2868                           ;mcc_generated_files/hlvd/src/hlvd.c: 108:     HLVD_Callback();
  2869   0104E8  D802               	call	i2u15_48
  2870   0104EA  EF81  F082         	goto	i2u15_49
  2871   0104EE                     i2u15_48:
  2872   0104EE  0005               	push	
  2873   0104F0  6EFA               	movwf	pclath,c
  2874   0104F2  5030               	movf	_HLVD_Callback^0,w,c
  2875   0104F4  6EFD               	movwf	tosl,c
  2876   0104F6  5031               	movf	(_HLVD_Callback+1)^0,w,c
  2877   0104F8  6EFE               	movwf	tosh,c
  2878   0104FA  5032               	movf	(_HLVD_Callback+2)^0,w,c
  2879   0104FC  6EFF               	movwf	tosu,c
  2880   0104FE  50FA               	movf	pclath,w,c
  2881   010500  0012               	return		;indir
  2882   010502                     i2u15_49:
  2883   010502  0012               	return		;funcret
  2884   010504                     __end_of_HLVD_ISR:
  2885                           	callstack 0
  2886                           
  2887 ;; *************** function _HLVD_DefaultCallback *****************
  2888 ;; Defined at:
  2889 ;;		line 117 in file "mcc_generated_files/hlvd/src/hlvd.c"
  2890 ;; Parameters:    Size  Location     Type
  2891 ;;		None
  2892 ;; Auto vars:     Size  Location     Type
  2893 ;;		None
  2894 ;; Return value:  Size  Location     Type
  2895 ;;                  1    wreg      void 
  2896 ;; Registers used:
  2897 ;;		None
  2898 ;; Tracked objects:
  2899 ;;		On entry : 0/0
  2900 ;;		On exit  : 0/0
  2901 ;;		Unchanged: 0/0
  2902 ;; Data sizes:     COMRAM   BANK0   BANK1   BANK2   BANK3   BANK4   BANK5   BANK6   BANK7   BANK8   BANK9  BANK10  BANK1
      +1  BANK12  BANK14
  2903 ;;      Params:         0       0       0       0       0       0       0       0       0       0       0       0       
      +0       0       0
  2904 ;;      Locals:         0       0       0       0       0       0       0       0       0       0       0       0       
      +0       0       0
  2905 ;;      Temps:          0       0       0       0       0       0       0       0       0       0       0       0       
      +0       0       0
  2906 ;;      Totals:         0       0       0       0       0       0       0       0       0       0       0       0       
      +0       0       0
  2907 ;;Total ram usage:        0 bytes
  2908 ;; Hardware stack levels used: 1
  2909 ;; This function calls:
  2910 ;;		Nothing
  2911 ;; This function is called by:
  2912 ;;		_HLVD_Initialize
  2913 ;;		_HLVD_ISR
  2914 ;; This function uses a non-reentrant model
  2915 ;;
  2916                           
  2917                           	psect	text25
  2918   0105B0                     __ptext25:
  2919                           	callstack 0
  2920   0105B0                     _HLVD_DefaultCallback:
  2921                           	callstack 22
  2922   0105B0  0012               	return		;funcret
  2923   0105B2                     __end_of_HLVD_DefaultCallback:
  2924                           	callstack 0
  2925                           
  2926 ;; *************** function _HLVD_UserCallback *****************
  2927 ;; Defined at:
  2928 ;;		line 136 in file "main.c"
  2929 ;; Parameters:    Size  Location     Type
  2930 ;;		None
  2931 ;; Auto vars:     Size  Location     Type
  2932 ;;		None
  2933 ;; Return value:  Size  Location     Type
  2934 ;;                  1    wreg      void 
  2935 ;; Registers used:
  2936 ;;		wreg, status,2
  2937 ;; Tracked objects:
  2938 ;;		On entry : 0/0
  2939 ;;		On exit  : 0/0
  2940 ;;		Unchanged: 0/0
  2941 ;; Data sizes:     COMRAM   BANK0   BANK1   BANK2   BANK3   BANK4   BANK5   BANK6   BANK7   BANK8   BANK9  BANK10  BANK1
      +1  BANK12  BANK14
  2942 ;;      Params:         0       0       0       0       0       0       0       0       0       0       0       0       
      +0       0       0
  2943 ;;      Locals:         0       0       0       0       0       0       0       0       0       0       0       0       
      +0       0       0
  2944 ;;      Temps:          0       0       0       0       0       0       0       0       0       0       0       0       
      +0       0       0
  2945 ;;      Totals:         0       0       0       0       0       0       0       0       0       0       0       0       
      +0       0       0
  2946 ;;Total ram usage:        0 bytes
  2947 ;; Hardware stack levels used: 1
  2948 ;; This function calls:
  2949 ;;		Nothing
  2950 ;; This function is called by:
  2951 ;;		_main
  2952 ;;		_HLVD_ISR
  2953 ;; This function uses a non-reentrant model
  2954 ;;
  2955                           
  2956                           	psect	text26
  2957   0105A6                     __ptext26:
  2958                           	callstack 0
  2959   0105A6                     _HLVD_UserCallback:
  2960                           	callstack 22
  2961   0105A6                     
  2962                           ;main.c: 138:     hlvdIntFlag = (1);
  2963   0105A6  0E01               	movlw	1
  2964   0105A8  6E3A               	movwf	_hlvdIntFlag^0,c	;volatile
  2965   0105AA  0012               	return		;funcret
  2966   0105AC                     __end_of_HLVD_UserCallback:
  2967                           	callstack 0
  2968                           
  2969                           	psect	text27
  2970   000000                     __ptext27:
  2971                           	callstack 0
  2972   000000                     
  2973                           	psect	rparam
  2974   000000                     
  2975                           	psect	temp
  2976   00005C                     btemp:
  2977                           	callstack 0
  2978   00005C                     	ds	1
  2979   000000                     int$flags	set	btemp
  2980   000000                     wtemp8	set	btemp+1
  2981   000000                     ttemp5	set	btemp+1
  2982   000000                     ttemp6	set	btemp+4
  2983   000000                     ttemp7	set	btemp+8
  2984                           
  2985                           	psect	idloc
  2986                           
  2987                           ;Config register IDLOC0 @ 0x200000
  2988                           ;	unspecified, using default values
  2989   200000                     	org	2097152
  2990   200000  FFFF               	dw	65535
  2991                           
  2992                           ;Config register IDLOC1 @ 0x200002
  2993                           ;	unspecified, using default values
  2994   200002                     	org	2097154
  2995   200002  FFFF               	dw	65535
  2996                           
  2997                           ;Config register IDLOC2 @ 0x200004
  2998                           ;	unspecified, using default values
  2999   200004                     	org	2097156
  3000   200004  FFFF               	dw	65535
  3001                           
  3002                           ;Config register IDLOC3 @ 0x200006
  3003                           ;	unspecified, using default values
  3004   200006                     	org	2097158
  3005   200006  FFFF               	dw	65535
  3006                           
  3007                           ;Config register IDLOC4 @ 0x200008
  3008                           ;	unspecified, using default values
  3009   200008                     	org	2097160
  3010   200008  FFFF               	dw	65535
  3011                           
  3012                           ;Config register IDLOC5 @ 0x20000A
  3013                           ;	unspecified, using default values
  3014   20000A                     	org	2097162
  3015   20000A  FFFF               	dw	65535
  3016                           
  3017                           ;Config register IDLOC6 @ 0x20000C
  3018                           ;	unspecified, using default values
  3019   20000C                     	org	2097164
  3020   20000C  FFFF               	dw	65535
  3021                           
  3022                           ;Config register IDLOC7 @ 0x20000E
  3023                           ;	unspecified, using default values
  3024   20000E                     	org	2097166
  3025   20000E  FFFF               	dw	65535
  3026                           
  3027                           ;Config register IDLOC8 @ 0x200010
  3028                           ;	unspecified, using default values
  3029   200010                     	org	2097168
  3030   200010  FFFF               	dw	65535
  3031                           
  3032                           ;Config register IDLOC9 @ 0x200012
  3033                           ;	unspecified, using default values
  3034   200012                     	org	2097170
  3035   200012  FFFF               	dw	65535
  3036                           
  3037                           ;Config register IDLOC10 @ 0x200014
  3038                           ;	unspecified, using default values
  3039   200014                     	org	2097172
  3040   200014  FFFF               	dw	65535
  3041                           
  3042                           ;Config register IDLOC11 @ 0x200016
  3043                           ;	unspecified, using default values
  3044   200016                     	org	2097174
  3045   200016  FFFF               	dw	65535
  3046                           
  3047                           ;Config register IDLOC12 @ 0x200018
  3048                           ;	unspecified, using default values
  3049   200018                     	org	2097176
  3050   200018  FFFF               	dw	65535
  3051                           
  3052                           ;Config register IDLOC13 @ 0x20001A
  3053                           ;	unspecified, using default values
  3054   20001A                     	org	2097178
  3055   20001A  FFFF               	dw	65535
  3056                           
  3057                           ;Config register IDLOC14 @ 0x20001C
  3058                           ;	unspecified, using default values
  3059   20001C                     	org	2097180
  3060   20001C  FFFF               	dw	65535
  3061                           
  3062                           ;Config register IDLOC15 @ 0x20001E
  3063                           ;	unspecified, using default values
  3064   20001E                     	org	2097182
  3065   20001E  FFFF               	dw	65535
  3066                           
  3067                           ;Config register IDLOC16 @ 0x200020
  3068                           ;	unspecified, using default values
  3069   200020                     	org	2097184
  3070   200020  FFFF               	dw	65535
  3071                           
  3072                           ;Config register IDLOC17 @ 0x200022
  3073                           ;	unspecified, using default values
  3074   200022                     	org	2097186
  3075   200022  FFFF               	dw	65535
  3076                           
  3077                           ;Config register IDLOC18 @ 0x200024
  3078                           ;	unspecified, using default values
  3079   200024                     	org	2097188
  3080   200024  FFFF               	dw	65535
  3081                           
  3082                           ;Config register IDLOC19 @ 0x200026
  3083                           ;	unspecified, using default values
  3084   200026                     	org	2097190
  3085   200026  FFFF               	dw	65535
  3086                           
  3087                           ;Config register IDLOC20 @ 0x200028
  3088                           ;	unspecified, using default values
  3089   200028                     	org	2097192
  3090   200028  FFFF               	dw	65535
  3091                           
  3092                           ;Config register IDLOC21 @ 0x20002A
  3093                           ;	unspecified, using default values
  3094   20002A                     	org	2097194
  3095   20002A  FFFF               	dw	65535
  3096                           
  3097                           ;Config register IDLOC22 @ 0x20002C
  3098                           ;	unspecified, using default values
  3099   20002C                     	org	2097196
  3100   20002C  FFFF               	dw	65535
  3101                           
  3102                           ;Config register IDLOC23 @ 0x20002E
  3103                           ;	unspecified, using default values
  3104   20002E                     	org	2097198
  3105   20002E  FFFF               	dw	65535
  3106                           
  3107                           ;Config register IDLOC24 @ 0x200030
  3108                           ;	unspecified, using default values
  3109   200030                     	org	2097200
  3110   200030  FFFF               	dw	65535
  3111                           
  3112                           ;Config register IDLOC25 @ 0x200032
  3113                           ;	unspecified, using default values
  3114   200032                     	org	2097202
  3115   200032  FFFF               	dw	65535
  3116                           
  3117                           ;Config register IDLOC26 @ 0x200034
  3118                           ;	unspecified, using default values
  3119   200034                     	org	2097204
  3120   200034  FFFF               	dw	65535
  3121                           
  3122                           ;Config register IDLOC27 @ 0x200036
  3123                           ;	unspecified, using default values
  3124   200036                     	org	2097206
  3125   200036  FFFF               	dw	65535
  3126                           
  3127                           ;Config register IDLOC28 @ 0x200038
  3128                           ;	unspecified, using default values
  3129   200038                     	org	2097208
  3130   200038  FFFF               	dw	65535
  3131                           
  3132                           ;Config register IDLOC29 @ 0x20003A
  3133                           ;	unspecified, using default values
  3134   20003A                     	org	2097210
  3135   20003A  FFFF               	dw	65535
  3136                           
  3137                           ;Config register IDLOC30 @ 0x20003C
  3138                           ;	unspecified, using default values
  3139   20003C                     	org	2097212
  3140   20003C  FFFF               	dw	65535
  3141                           
  3142                           ;Config register IDLOC31 @ 0x20003E
  3143                           ;	unspecified, using default values
  3144   20003E                     	org	2097214
  3145   20003E  FFFF               	dw	65535
  3146                           
  3147                           ;Config register IDLOC32 @ 0x200040
  3148                           ;	unspecified, using default values
  3149   200040                     	org	2097216
  3150   200040  FFFF               	dw	65535
  3151                           
  3152                           ;Config register IDLOC33 @ 0x200042
  3153                           ;	unspecified, using default values
  3154   200042                     	org	2097218
  3155   200042  FFFF               	dw	65535
  3156                           
  3157                           ;Config register IDLOC34 @ 0x200044
  3158                           ;	unspecified, using default values
  3159   200044                     	org	2097220
  3160   200044  FFFF               	dw	65535
  3161                           
  3162                           ;Config register IDLOC35 @ 0x200046
  3163                           ;	unspecified, using default values
  3164   200046                     	org	2097222
  3165   200046  FFFF               	dw	65535
  3166                           
  3167                           ;Config register IDLOC36 @ 0x200048
  3168                           ;	unspecified, using default values
  3169   200048                     	org	2097224
  3170   200048  FFFF               	dw	65535
  3171                           
  3172                           ;Config register IDLOC37 @ 0x20004A
  3173                           ;	unspecified, using default values
  3174   20004A                     	org	2097226
  3175   20004A  FFFF               	dw	65535
  3176                           
  3177                           ;Config register IDLOC38 @ 0x20004C
  3178                           ;	unspecified, using default values
  3179   20004C                     	org	2097228
  3180   20004C  FFFF               	dw	65535
  3181                           
  3182                           ;Config register IDLOC39 @ 0x20004E
  3183                           ;	unspecified, using default values
  3184   20004E                     	org	2097230
  3185   20004E  FFFF               	dw	65535
  3186                           
  3187                           ;Config register IDLOC40 @ 0x200050
  3188                           ;	unspecified, using default values
  3189   200050                     	org	2097232
  3190   200050  FFFF               	dw	65535
  3191                           
  3192                           ;Config register IDLOC41 @ 0x200052
  3193                           ;	unspecified, using default values
  3194   200052                     	org	2097234
  3195   200052  FFFF               	dw	65535
  3196                           
  3197                           ;Config register IDLOC42 @ 0x200054
  3198                           ;	unspecified, using default values
  3199   200054                     	org	2097236
  3200   200054  FFFF               	dw	65535
  3201                           
  3202                           ;Config register IDLOC43 @ 0x200056
  3203                           ;	unspecified, using default values
  3204   200056                     	org	2097238
  3205   200056  FFFF               	dw	65535
  3206                           
  3207                           ;Config register IDLOC44 @ 0x200058
  3208                           ;	unspecified, using default values
  3209   200058                     	org	2097240
  3210   200058  FFFF               	dw	65535
  3211                           
  3212                           ;Config register IDLOC45 @ 0x20005A
  3213                           ;	unspecified, using default values
  3214   20005A                     	org	2097242
  3215   20005A  FFFF               	dw	65535
  3216                           
  3217                           ;Config register IDLOC46 @ 0x20005C
  3218                           ;	unspecified, using default values
  3219   20005C                     	org	2097244
  3220   20005C  FFFF               	dw	65535
  3221                           
  3222                           ;Config register IDLOC47 @ 0x20005E
  3223                           ;	unspecified, using default values
  3224   20005E                     	org	2097246
  3225   20005E  FFFF               	dw	65535
  3226                           
  3227                           ;Config register IDLOC48 @ 0x200060
  3228                           ;	unspecified, using default values
  3229   200060                     	org	2097248
  3230   200060  FFFF               	dw	65535
  3231                           
  3232                           ;Config register IDLOC49 @ 0x200062
  3233                           ;	unspecified, using default values
  3234   200062                     	org	2097250
  3235   200062  FFFF               	dw	65535
  3236                           
  3237                           ;Config register IDLOC50 @ 0x200064
  3238                           ;	unspecified, using default values
  3239   200064                     	org	2097252
  3240   200064  FFFF               	dw	65535
  3241                           
  3242                           ;Config register IDLOC51 @ 0x200066
  3243                           ;	unspecified, using default values
  3244   200066                     	org	2097254
  3245   200066  FFFF               	dw	65535
  3246                           
  3247                           ;Config register IDLOC52 @ 0x200068
  3248                           ;	unspecified, using default values
  3249   200068                     	org	2097256
  3250   200068  FFFF               	dw	65535
  3251                           
  3252                           ;Config register IDLOC53 @ 0x20006A
  3253                           ;	unspecified, using default values
  3254   20006A                     	org	2097258
  3255   20006A  FFFF               	dw	65535
  3256                           
  3257                           ;Config register IDLOC54 @ 0x20006C
  3258                           ;	unspecified, using default values
  3259   20006C                     	org	2097260
  3260   20006C  FFFF               	dw	65535
  3261                           
  3262                           ;Config register IDLOC55 @ 0x20006E
  3263                           ;	unspecified, using default values
  3264   20006E                     	org	2097262
  3265   20006E  FFFF               	dw	65535
  3266                           
  3267                           ;Config register IDLOC56 @ 0x200070
  3268                           ;	unspecified, using default values
  3269   200070                     	org	2097264
  3270   200070  FFFF               	dw	65535
  3271                           
  3272                           ;Config register IDLOC57 @ 0x200072
  3273                           ;	unspecified, using default values
  3274   200072                     	org	2097266
  3275   200072  FFFF               	dw	65535
  3276                           
  3277                           ;Config register IDLOC58 @ 0x200074
  3278                           ;	unspecified, using default values
  3279   200074                     	org	2097268
  3280   200074  FFFF               	dw	65535
  3281                           
  3282                           ;Config register IDLOC59 @ 0x200076
  3283                           ;	unspecified, using default values
  3284   200076                     	org	2097270
  3285   200076  FFFF               	dw	65535
  3286                           
  3287                           ;Config register IDLOC60 @ 0x200078
  3288                           ;	unspecified, using default values
  3289   200078                     	org	2097272
  3290   200078  FFFF               	dw	65535
  3291                           
  3292                           ;Config register IDLOC61 @ 0x20007A
  3293                           ;	unspecified, using default values
  3294   20007A                     	org	2097274
  3295   20007A  FFFF               	dw	65535
  3296                           
  3297                           ;Config register IDLOC62 @ 0x20007C
  3298                           ;	unspecified, using default values
  3299   20007C                     	org	2097276
  3300   20007C  FFFF               	dw	65535
  3301                           
  3302                           ;Config register IDLOC63 @ 0x20007E
  3303                           ;	unspecified, using default values
  3304   20007E                     	org	2097278
  3305   20007E  FFFF               	dw	65535
  3306                           
  3307                           ;Config register IDLOC64 @ 0x200080
  3308                           ;	unspecified, using default values
  3309   200080                     	org	2097280
  3310   200080  FFFF               	dw	65535
  3311                           
  3312                           ;Config register IDLOC65 @ 0x200082
  3313                           ;	unspecified, using default values
  3314   200082                     	org	2097282
  3315   200082  FFFF               	dw	65535
  3316                           
  3317                           ;Config register IDLOC66 @ 0x200084
  3318                           ;	unspecified, using default values
  3319   200084                     	org	2097284
  3320   200084  FFFF               	dw	65535
  3321                           
  3322                           ;Config register IDLOC67 @ 0x200086
  3323                           ;	unspecified, using default values
  3324   200086                     	org	2097286
  3325   200086  FFFF               	dw	65535
  3326                           
  3327                           ;Config register IDLOC68 @ 0x200088
  3328                           ;	unspecified, using default values
  3329   200088                     	org	2097288
  3330   200088  FFFF               	dw	65535
  3331                           
  3332                           ;Config register IDLOC69 @ 0x20008A
  3333                           ;	unspecified, using default values
  3334   20008A                     	org	2097290
  3335   20008A  FFFF               	dw	65535
  3336                           
  3337                           ;Config register IDLOC70 @ 0x20008C
  3338                           ;	unspecified, using default values
  3339   20008C                     	org	2097292
  3340   20008C  FFFF               	dw	65535
  3341                           
  3342                           ;Config register IDLOC71 @ 0x20008E
  3343                           ;	unspecified, using default values
  3344   20008E                     	org	2097294
  3345   20008E  FFFF               	dw	65535
  3346                           
  3347                           ;Config register IDLOC72 @ 0x200090
  3348                           ;	unspecified, using default values
  3349   200090                     	org	2097296
  3350   200090  FFFF               	dw	65535
  3351                           
  3352                           ;Config register IDLOC73 @ 0x200092
  3353                           ;	unspecified, using default values
  3354   200092                     	org	2097298
  3355   200092  FFFF               	dw	65535
  3356                           
  3357                           ;Config register IDLOC74 @ 0x200094
  3358                           ;	unspecified, using default values
  3359   200094                     	org	2097300
  3360   200094  FFFF               	dw	65535
  3361                           
  3362                           ;Config register IDLOC75 @ 0x200096
  3363                           ;	unspecified, using default values
  3364   200096                     	org	2097302
  3365   200096  FFFF               	dw	65535
  3366                           
  3367                           ;Config register IDLOC76 @ 0x200098
  3368                           ;	unspecified, using default values
  3369   200098                     	org	2097304
  3370   200098  FFFF               	dw	65535
  3371                           
  3372                           ;Config register IDLOC77 @ 0x20009A
  3373                           ;	unspecified, using default values
  3374   20009A                     	org	2097306
  3375   20009A  FFFF               	dw	65535
  3376                           
  3377                           ;Config register IDLOC78 @ 0x20009C
  3378                           ;	unspecified, using default values
  3379   20009C                     	org	2097308
  3380   20009C  FFFF               	dw	65535
  3381                           
  3382                           ;Config register IDLOC79 @ 0x20009E
  3383                           ;	unspecified, using default values
  3384   20009E                     	org	2097310
  3385   20009E  FFFF               	dw	65535
  3386                           
  3387                           ;Config register IDLOC80 @ 0x2000A0
  3388                           ;	unspecified, using default values
  3389   2000A0                     	org	2097312
  3390   2000A0  FFFF               	dw	65535
  3391                           
  3392                           ;Config register IDLOC81 @ 0x2000A2
  3393                           ;	unspecified, using default values
  3394   2000A2                     	org	2097314
  3395   2000A2  FFFF               	dw	65535
  3396                           
  3397                           ;Config register IDLOC82 @ 0x2000A4
  3398                           ;	unspecified, using default values
  3399   2000A4                     	org	2097316
  3400   2000A4  FFFF               	dw	65535
  3401                           
  3402                           ;Config register IDLOC83 @ 0x2000A6
  3403                           ;	unspecified, using default values
  3404   2000A6                     	org	2097318
  3405   2000A6  FFFF               	dw	65535
  3406                           
  3407                           ;Config register IDLOC84 @ 0x2000A8
  3408                           ;	unspecified, using default values
  3409   2000A8                     	org	2097320
  3410   2000A8  FFFF               	dw	65535
  3411                           
  3412                           ;Config register IDLOC85 @ 0x2000AA
  3413                           ;	unspecified, using default values
  3414   2000AA                     	org	2097322
  3415   2000AA  FFFF               	dw	65535
  3416                           
  3417                           ;Config register IDLOC86 @ 0x2000AC
  3418                           ;	unspecified, using default values
  3419   2000AC                     	org	2097324
  3420   2000AC  FFFF               	dw	65535
  3421                           
  3422                           ;Config register IDLOC87 @ 0x2000AE
  3423                           ;	unspecified, using default values
  3424   2000AE                     	org	2097326
  3425   2000AE  FFFF               	dw	65535
  3426                           
  3427                           ;Config register IDLOC88 @ 0x2000B0
  3428                           ;	unspecified, using default values
  3429   2000B0                     	org	2097328
  3430   2000B0  FFFF               	dw	65535
  3431                           
  3432                           ;Config register IDLOC89 @ 0x2000B2
  3433                           ;	unspecified, using default values
  3434   2000B2                     	org	2097330
  3435   2000B2  FFFF               	dw	65535
  3436                           
  3437                           ;Config register IDLOC90 @ 0x2000B4
  3438                           ;	unspecified, using default values
  3439   2000B4                     	org	2097332
  3440   2000B4  FFFF               	dw	65535
  3441                           
  3442                           ;Config register IDLOC91 @ 0x2000B6
  3443                           ;	unspecified, using default values
  3444   2000B6                     	org	2097334
  3445   2000B6  FFFF               	dw	65535
  3446                           
  3447                           ;Config register IDLOC92 @ 0x2000B8
  3448                           ;	unspecified, using default values
  3449   2000B8                     	org	2097336
  3450   2000B8  FFFF               	dw	65535
  3451                           
  3452                           ;Config register IDLOC93 @ 0x2000BA
  3453                           ;	unspecified, using default values
  3454   2000BA                     	org	2097338
  3455   2000BA  FFFF               	dw	65535
  3456                           
  3457                           ;Config register IDLOC94 @ 0x2000BC
  3458                           ;	unspecified, using default values
  3459   2000BC                     	org	2097340
  3460   2000BC  FFFF               	dw	65535
  3461                           
  3462                           ;Config register IDLOC95 @ 0x2000BE
  3463                           ;	unspecified, using default values
  3464   2000BE                     	org	2097342
  3465   2000BE  FFFF               	dw	65535
  3466                           
  3467                           ;Config register IDLOC96 @ 0x2000C0
  3468                           ;	unspecified, using default values
  3469   2000C0                     	org	2097344
  3470   2000C0  FFFF               	dw	65535
  3471                           
  3472                           ;Config register IDLOC97 @ 0x2000C2
  3473                           ;	unspecified, using default values
  3474   2000C2                     	org	2097346
  3475   2000C2  FFFF               	dw	65535
  3476                           
  3477                           ;Config register IDLOC98 @ 0x2000C4
  3478                           ;	unspecified, using default values
  3479   2000C4                     	org	2097348
  3480   2000C4  FFFF               	dw	65535
  3481                           
  3482                           ;Config register IDLOC99 @ 0x2000C6
  3483                           ;	unspecified, using default values
  3484   2000C6                     	org	2097350
  3485   2000C6  FFFF               	dw	65535
  3486                           
  3487                           ;Config register IDLOC100 @ 0x2000C8
  3488                           ;	unspecified, using default values
  3489   2000C8                     	org	2097352
  3490   2000C8  FFFF               	dw	65535
  3491                           
  3492                           ;Config register IDLOC101 @ 0x2000CA
  3493                           ;	unspecified, using default values
  3494   2000CA                     	org	2097354
  3495   2000CA  FFFF               	dw	65535
  3496                           
  3497                           ;Config register IDLOC102 @ 0x2000CC
  3498                           ;	unspecified, using default values
  3499   2000CC                     	org	2097356
  3500   2000CC  FFFF               	dw	65535
  3501                           
  3502                           ;Config register IDLOC103 @ 0x2000CE
  3503                           ;	unspecified, using default values
  3504   2000CE                     	org	2097358
  3505   2000CE  FFFF               	dw	65535
  3506                           
  3507                           ;Config register IDLOC104 @ 0x2000D0
  3508                           ;	unspecified, using default values
  3509   2000D0                     	org	2097360
  3510   2000D0  FFFF               	dw	65535
  3511                           
  3512                           ;Config register IDLOC105 @ 0x2000D2
  3513                           ;	unspecified, using default values
  3514   2000D2                     	org	2097362
  3515   2000D2  FFFF               	dw	65535
  3516                           
  3517                           ;Config register IDLOC106 @ 0x2000D4
  3518                           ;	unspecified, using default values
  3519   2000D4                     	org	2097364
  3520   2000D4  FFFF               	dw	65535
  3521                           
  3522                           ;Config register IDLOC107 @ 0x2000D6
  3523                           ;	unspecified, using default values
  3524   2000D6                     	org	2097366
  3525   2000D6  FFFF               	dw	65535
  3526                           
  3527                           ;Config register IDLOC108 @ 0x2000D8
  3528                           ;	unspecified, using default values
  3529   2000D8                     	org	2097368
  3530   2000D8  FFFF               	dw	65535
  3531                           
  3532                           ;Config register IDLOC109 @ 0x2000DA
  3533                           ;	unspecified, using default values
  3534   2000DA                     	org	2097370
  3535   2000DA  FFFF               	dw	65535
  3536                           
  3537                           ;Config register IDLOC110 @ 0x2000DC
  3538                           ;	unspecified, using default values
  3539   2000DC                     	org	2097372
  3540   2000DC  FFFF               	dw	65535
  3541                           
  3542                           ;Config register IDLOC111 @ 0x2000DE
  3543                           ;	unspecified, using default values
  3544   2000DE                     	org	2097374
  3545   2000DE  FFFF               	dw	65535
  3546                           
  3547                           ;Config register IDLOC112 @ 0x2000E0
  3548                           ;	unspecified, using default values
  3549   2000E0                     	org	2097376
  3550   2000E0  FFFF               	dw	65535
  3551                           
  3552                           ;Config register IDLOC113 @ 0x2000E2
  3553                           ;	unspecified, using default values
  3554   2000E2                     	org	2097378
  3555   2000E2  FFFF               	dw	65535
  3556                           
  3557                           ;Config register IDLOC114 @ 0x2000E4
  3558                           ;	unspecified, using default values
  3559   2000E4                     	org	2097380
  3560   2000E4  FFFF               	dw	65535
  3561                           
  3562                           ;Config register IDLOC115 @ 0x2000E6
  3563                           ;	unspecified, using default values
  3564   2000E6                     	org	2097382
  3565   2000E6  FFFF               	dw	65535
  3566                           
  3567                           ;Config register IDLOC116 @ 0x2000E8
  3568                           ;	unspecified, using default values
  3569   2000E8                     	org	2097384
  3570   2000E8  FFFF               	dw	65535
  3571                           
  3572                           ;Config register IDLOC117 @ 0x2000EA
  3573                           ;	unspecified, using default values
  3574   2000EA                     	org	2097386
  3575   2000EA  FFFF               	dw	65535
  3576                           
  3577                           ;Config register IDLOC118 @ 0x2000EC
  3578                           ;	unspecified, using default values
  3579   2000EC                     	org	2097388
  3580   2000EC  FFFF               	dw	65535
  3581                           
  3582                           ;Config register IDLOC119 @ 0x2000EE
  3583                           ;	unspecified, using default values
  3584   2000EE                     	org	2097390
  3585   2000EE  FFFF               	dw	65535
  3586                           
  3587                           ;Config register IDLOC120 @ 0x2000F0
  3588                           ;	unspecified, using default values
  3589   2000F0                     	org	2097392
  3590   2000F0  FFFF               	dw	65535
  3591                           
  3592                           ;Config register IDLOC121 @ 0x2000F2
  3593                           ;	unspecified, using default values
  3594   2000F2                     	org	2097394
  3595   2000F2  FFFF               	dw	65535
  3596                           
  3597                           ;Config register IDLOC122 @ 0x2000F4
  3598                           ;	unspecified, using default values
  3599   2000F4                     	org	2097396
  3600   2000F4  FFFF               	dw	65535
  3601                           
  3602                           ;Config register IDLOC123 @ 0x2000F6
  3603                           ;	unspecified, using default values
  3604   2000F6                     	org	2097398
  3605   2000F6  FFFF               	dw	65535
  3606                           
  3607                           ;Config register IDLOC124 @ 0x2000F8
  3608                           ;	unspecified, using default values
  3609   2000F8                     	org	2097400
  3610   2000F8  FFFF               	dw	65535
  3611                           
  3612                           ;Config register IDLOC125 @ 0x2000FA
  3613                           ;	unspecified, using default values
  3614   2000FA                     	org	2097402
  3615   2000FA  FFFF               	dw	65535
  3616                           
  3617                           ;Config register IDLOC126 @ 0x2000FC
  3618                           ;	unspecified, using default values
  3619   2000FC                     	org	2097404
  3620   2000FC  FFFF               	dw	65535
  3621                           
  3622                           ;Config register IDLOC127 @ 0x2000FE
  3623                           ;	unspecified, using default values
  3624   2000FE                     	org	2097406
  3625   2000FE  FFFF               	dw	65535
  3626                           
  3627                           	psect	config
  3628                           
  3629                           ;Config register CONFIG1L @ 0x300000
  3630                           ;	External Oscillator mode Selection bits
  3631                           ;	FEXTOSC = ECH, EC (external clock) above 8 MHz; PFM set to high power
  3632                           ;	Power-up default value for COSC bits
  3633                           ;	RSTOSC = EXTOSC, EXTOSC operating per FEXTOSC bits (device manufacturing default)
  3634   300000                     	org	3145728
  3635   300000  FF                 	db	255
  3636                           
  3637                           ;Config register CONFIG1H @ 0x300001
  3638                           ;	Clock Out Enable bit
  3639                           ;	CLKOUTEN = OFF, CLKOUT function is disabled
  3640                           ;	Clock Switch Enable bit
  3641                           ;	CSWEN = ON, Writing to NOSC and NDIV is allowed
  3642                           ;	Fail-Safe Clock Monitor Enable bit
  3643                           ;	FCMEN = ON, Fail-Safe Clock Monitor enabled
  3644   300001                     	org	3145729
  3645   300001  FF                 	db	255
  3646                           
  3647                           ;Config register CONFIG2L @ 0x300002
  3648                           ;	Master Clear Enable bit
  3649                           ;	MCLRE = EXTMCLR, MCLR pin (RE3) is MCLR
  3650                           ;	Power-up Timer Enable bit
  3651                           ;	PWRTE = OFF, Power up timer disabled
  3652                           ;	Low-power BOR enable bit
  3653                           ;	LPBOREN = OFF, Low power BOR is disabled
  3654                           ;	Brown-out Reset Enable bits
  3655                           ;	BOREN = SBORDIS, Brown-out Reset enabled , SBOREN bit is ignored
  3656   300002                     	org	3145730
  3657   300002  FF                 	db	255
  3658                           
  3659                           ;Config register CONFIG2H @ 0x300003
  3660                           ;	Brown Out Reset Voltage selection bits
  3661                           ;	BORV = VBOR_190, Brown-out Reset Voltage (VBOR) set to 1.90V
  3662                           ;	ZCD Disable bit
  3663                           ;	ZCD = OFF, ZCD disabled. ZCD can be enabled by setting the ZCDSEN bit of ZCDCON
  3664                           ;	PPSLOCK bit One-Way Set Enable bit
  3665                           ;	PPS1WAY = ON, PPSLOCK bit can be cleared and set only once; PPS registers remain locke
      +                          d after one clear/set cycle
  3666                           ;	Stack Full/Underflow Reset Enable bit
  3667                           ;	STVREN = ON, Stack full/underflow will cause Reset
  3668                           ;	Extended Instruction Set Enable bit
  3669                           ;	XINST = OFF, Extended Instruction Set and Indexed Addressing Mode disabled
  3670   300003                     	org	3145731
  3671   300003  FF                 	db	255
  3672                           
  3673                           ;Config register CONFIG3L @ 0x300004
  3674                           ;	WDT Period Select bits
  3675                           ;	WDTCPS = WDTCPS_31, Divider ratio 1:65536; software control of WDTPS
  3676                           ;	WDT operating mode
  3677                           ;	WDTE = OFF, WDT Disabled
  3678   300004                     	org	3145732
  3679   300004  9F                 	db	159
  3680                           
  3681                           ;Config register CONFIG3H @ 0x300005
  3682                           ;	WDT Window Select bits
  3683                           ;	WDTCWS = WDTCWS_7, window always open (100%); software control; keyed access not requi
      +                          red
  3684                           ;	WDT input clock selector
  3685                           ;	WDTCCS = SC, Software Control
  3686   300005                     	org	3145733
  3687   300005  FF                 	db	255
  3688                           
  3689                           ;Config register CONFIG4L @ 0x300006
  3690                           ;	Write Protection Block 0
  3691                           ;	WRT0 = OFF, Block 0 (000800-003FFFh) not write-protected
  3692                           ;	Write Protection Block 1
  3693                           ;	WRT1 = OFF, Block 1 (004000-007FFFh) not write-protected
  3694                           ;	Write Protection Block 2
  3695                           ;	WRT2 = OFF, Block 2 (008000-00BFFFh) not write-protected
  3696                           ;	Write Protection Block 3
  3697                           ;	WRT3 = OFF, Block 3 (00C000-00FFFFh) not write-protected
  3698                           ;	Write Protection Block 4
  3699                           ;	WRT4 = OFF, Block 4 (010000-013FFFh) not write-protected
  3700                           ;	Write Protection Block 5
  3701                           ;	WRT5 = OFF, Block 5 (014000-017FFFh) not write-protected
  3702                           ;	Write Protection Block 6
  3703                           ;	WRT6 = OFF, Block 6 (018000-01BFFFh) not write-protected
  3704                           ;	Write Protection Block 7
  3705                           ;	WRT7 = OFF, Block 7 (01C000-01FFFFh) not write-protected
  3706   300006                     	org	3145734
  3707   300006  FF                 	db	255
  3708                           
  3709                           ;Config register CONFIG4H @ 0x300007
  3710                           ;	Configuration Register Write Protection bit
  3711                           ;	WRTC = OFF, Configuration registers (300000-30000Bh) not write-protected
  3712                           ;	Boot Block Write Protection bit
  3713                           ;	WRTB = OFF, Boot Block (000000-0007FFh) not write-protected
  3714                           ;	Data EEPROM Write Protection bit
  3715                           ;	WRTD = OFF, Data EEPROM not write-protected
  3716                           ;	Scanner Enable bit
  3717                           ;	SCANE = ON, Scanner module is available for use, SCANMD bit can control the module
  3718                           ;	Low Voltage Programming Enable bit
  3719                           ;	LVP = ON, Low voltage programming enabled. MCLR/VPP pin function is MCLR. MCLRE config
      +                          uration bit is ignored
  3720   300007                     	org	3145735
  3721   300007  FF                 	db	255
  3722                           
  3723                           ;Config register CONFIG5L @ 0x300008
  3724                           ;	UserNVM Program Memory Code Protection bit
  3725                           ;	CP = OFF, UserNVM code protection disabled
  3726                           ;	DataNVM Memory Code Protection bit
  3727                           ;	CPD = OFF, DataNVM code protection disabled
  3728   300008                     	org	3145736
  3729   300008  FF                 	db	255
  3730                           
  3731                           ;Config register CONFIG5H @ 0x300009
  3732                           ;	unspecified, using default values
  3733   300009                     	org	3145737
  3734   300009  FF                 	db	255
  3735                           
  3736                           ;Config register CONFIG6L @ 0x30000A
  3737                           ;	Table Read Protection Block 0
  3738                           ;	EBTR0 = OFF, Block 0 (000800-003FFFh) not protected from table reads executed in other
      +                           blocks
  3739                           ;	Table Read Protection Block 1
  3740                           ;	EBTR1 = OFF, Block 1 (004000-007FFFh) not protected from table reads executed in other
      +                           blocks
  3741                           ;	Table Read Protection Block 2
  3742                           ;	EBTR2 = OFF, Block 2 (008000-00BFFFh) not protected from table reads executed in other
      +                           blocks
  3743                           ;	Table Read Protection Block 3
  3744                           ;	EBTR3 = OFF, Block 3 (00C000-00FFFFh) not protected from table reads executed in other
      +                           blocks
  3745                           ;	Table Read Protection Block 4
  3746                           ;	EBTR4 = OFF, Block 4 (010000-013FFFh) not protected from table reads executed in other
      +                           blocks
  3747                           ;	Table Read Protection Block 5
  3748                           ;	EBTR5 = OFF, Block 5 (014000-017FFFh) not protected from table reads executed in other
      +                           blocks
  3749                           ;	Table Read Protection Block 6
  3750                           ;	EBTR6 = OFF, Block 6 (018000-01BFFFh) not protected from table reads executed in other
      +                           blocks
  3751                           ;	Table Read Protection Block 7
  3752                           ;	EBTR7 = OFF, Block 7 (01C000-01FFFFh) not protected from table reads executed in other
      +                           blocks
  3753   30000A                     	org	3145738
  3754   30000A  FF                 	db	255
  3755                           
  3756                           ;Config register CONFIG6H @ 0x30000B
  3757                           ;	Boot Block Table Read Protection bit
  3758                           ;	EBTRB = OFF, Boot Block (000000-0007FFh) not protected from table reads executed in ot
      +                          her blocks
  3759   30000B                     	org	3145739
  3760   30000B  FF                 	db	255
  3761                           tosu	equ	0xFFF
  3762                           tosh	equ	0xFFE
  3763                           tosl	equ	0xFFD
  3764                           stkptr	equ	0xFFC
  3765                           pclatu	equ	0xFFB
  3766                           pclath	equ	0xFFA
  3767                           pcl	equ	0xFF9
  3768                           tblptru	equ	0xFF8
  3769                           tblptrh	equ	0xFF7
  3770                           tblptrl	equ	0xFF6
  3771                           tablat	equ	0xFF5
  3772                           prodh	equ	0xFF4
  3773                           prodl	equ	0xFF3
  3774                           indf0	equ	0xFEF
  3775                           postinc0	equ	0xFEE
  3776                           postdec0	equ	0xFED
  3777                           preinc0	equ	0xFEC
  3778                           plusw0	equ	0xFEB
  3779                           fsr0h	equ	0xFEA
  3780                           fsr0l	equ	0xFE9
  3781                           wreg	equ	0xFE8
  3782                           indf1	equ	0xFE7
  3783                           postinc1	equ	0xFE6
  3784                           postdec1	equ	0xFE5
  3785                           preinc1	equ	0xFE4
  3786                           plusw1	equ	0xFE3
  3787                           fsr1h	equ	0xFE2
  3788                           fsr1l	equ	0xFE1
  3789                           bsr	equ	0xFE0
  3790                           indf2	equ	0xFDF
  3791                           postinc2	equ	0xFDE
  3792                           postdec2	equ	0xFDD
  3793                           preinc2	equ	0xFDC
  3794                           plusw2	equ	0xFDB
  3795                           fsr2h	equ	0xFDA
  3796                           fsr2l	equ	0xFD9
  3797                           status	equ	0xFD8

Data Sizes:
    Strings     413
    Constant    72
    Data        2
    BSS         58
    Persistent  0
    Stack       0

Auto Spaces:
    Space          Size  Autos    Used
    COMRAM           94     31      91
    BANK0           160      0       0
    BANK1           256      0       0
    BANK2           256      0       0
    BANK3           256      0       0
    BANK4           256      0       0
    BANK5           256      0       0
    BANK6           256      0       0
    BANK7           256      0       0
    BANK8           256      0       0
    BANK9           256      0       0
    BANK10          256      0       0
    BANK11          256      0       0
    BANK12          256      0       0
    BANK14           31      0       0

Pointer List with Targets:

    S341$20$0	PTR FTN()void  size(3) Largest target is 1
		 -> EUSART2_DefaultFramingErrorCallback(), 

    S341$21$0	PTR FTN()void  size(3) Largest target is 1
		 -> EUSART2_DefaultOverrunErrorCallback(), 

    vfpfcnvrt@ap	PTR PTR void  size(2) Largest target is 2
		 -> printf@ap(COMRAM[2]), 

    S1378$source	PTR const unsigned char  size(2) Largest target is 0

    fputc@fp...source	PTR const unsigned char  size(2) Largest target is 0

    S1378$buffer	PTR unsigned char  size(2) Largest target is 0

    fputc@fp...buffer	PTR unsigned char  size(2) Largest target is 0

    fputc@fp	PTR struct _IO_FILE size(2) Largest target is 0
		 -> NULL(NULL[0]), 

    vfprintf@ap	PTR PTR void  size(2) Largest target is 2
		 -> printf@ap(COMRAM[2]), 

    vfprintf@fp	PTR struct _IO_FILE size(2) Largest target is 0
		 -> NULL(NULL[0]), 

    vfprintf@fmt	PTR const unsigned char  size(2) Largest target is 97
		 -> STR_9(CODE[94]), STR_8(CODE[28]), STR_7(CODE[46]), STR_6(CODE[97]), 
		 -> STR_5(CODE[28]), STR_4(CODE[46]), STR_3(CODE[94]), STR_2(CODE[24]), 
		 -> STR_1(CODE[50]), 

    vfprintf@cfmt	PTR unsigned char  size(2) Largest target is 97
		 -> STR_9(CODE[94]), STR_8(CODE[28]), STR_7(CODE[46]), STR_6(CODE[97]), 
		 -> STR_5(CODE[28]), STR_4(CODE[46]), STR_3(CODE[94]), STR_2(CODE[24]), 
		 -> STR_1(CODE[50]), 

    vfpfcnvrt@fp	PTR struct _IO_FILE size(2) Largest target is 0
		 -> NULL(NULL[0]), 

    vfpfcnvrt@fmt	PTR PTR unsigned char  size(2) Largest target is 2
		 -> vfprintf@cfmt(COMRAM[2]), 

    S1412$vp	PTR void  size(2) Largest target is 0

    convarg.vp	PTR void  size(2) Largest target is 0

    printf@fmt	PTR const unsigned char  size(2) Largest target is 97
		 -> STR_9(CODE[94]), STR_8(CODE[28]), STR_7(CODE[46]), STR_6(CODE[97]), 
		 -> STR_5(CODE[28]), STR_4(CODE[46]), STR_3(CODE[94]), STR_2(CODE[24]), 
		 -> STR_1(CODE[50]), 

    printf@ap	PTR void [1] size(2) Largest target is 2
		 -> ?_printf(COMRAM[2]), 

    INT2_SetInterruptHandler@InterruptHandler	PTR FTN()void  size(3) Largest target is 1
		 -> INT2_DefaultInterruptHandler(), 

    INT2_InterruptHandler	PTR FTN()void  size(3) Largest target is 1
		 -> INT2_DefaultInterruptHandler(), NULL(), 

    INT1_SetInterruptHandler@InterruptHandler	PTR FTN()void  size(3) Largest target is 1
		 -> INT1_DefaultInterruptHandler(), 

    INT1_InterruptHandler	PTR FTN()void  size(3) Largest target is 1
		 -> INT1_DefaultInterruptHandler(), NULL(), 

    INT0_SetInterruptHandler@InterruptHandler	PTR FTN()void  size(3) Largest target is 1
		 -> INT0_DefaultInterruptHandler(), 

    INT0_InterruptHandler	PTR FTN()void  size(3) Largest target is 1
		 -> INT0_DefaultInterruptHandler(), NULL(), 

    EUSART2_OverrunErrorCallbackRegister@callbackHandler	PTR FTN()void  size(3) Largest target is 1
		 -> EUSART2_DefaultOverrunErrorCallback(), 

    EUSART2_FramingErrorCallbackRegister@callbackHandler	PTR FTN()void  size(3) Largest target is 1
		 -> EUSART2_DefaultFramingErrorCallback(), 

    EUSART2_FramingErrorHandler	PTR FTN()void  size(3) Largest target is 1
		 -> EUSART2_DefaultFramingErrorCallback(), NULL(), 

    EUSART2_OverrunErrorHandler	PTR FTN()void  size(3) Largest target is 1
		 -> EUSART2_DefaultOverrunErrorCallback(), NULL(), 

    S341$EventCallbackRegister	PTR FTN(PTR FTN()void ,)void  size(3) Largest target is 1
		 -> NULL(), 

    UART2.EventCallbackRegister	PTR FTN(PTR FTN()void ,)void  size(3) Largest target is 1
		 -> NULL(), 

    S341$ParityErrorCallbackRegister	PTR FTN(PTR FTN()void ,)void  size(3) Largest target is 1
		 -> NULL(), 

    UART2.ParityErrorCallbackRegister	PTR FTN(PTR FTN()void ,)void  size(3) Largest target is 1
		 -> NULL(), 

    S341$OverrunErrorCallbackRegister	PTR FTN(PTR FTN()void ,)void  size(3) Largest target is 1
		 -> EUSART2_OverrunErrorCallbackRegister(), 

    UART2.OverrunErrorCallbackRegister	PTR FTN(PTR FTN()void ,)void  size(3) Largest target is 1
		 -> EUSART2_OverrunErrorCallbackRegister(), 

    S341$FramingErrorCallbackRegister	PTR FTN(PTR FTN()void ,)void  size(3) Largest target is 1
		 -> EUSART2_FramingErrorCallbackRegister(), 

    UART2.FramingErrorCallbackRegister	PTR FTN(PTR FTN()void ,)void  size(3) Largest target is 1
		 -> EUSART2_FramingErrorCallbackRegister(), 

    S341$TxCollisionCallbackRegister	PTR FTN(PTR FTN()void ,)void  size(3) Largest target is 1
		 -> NULL(), 

    UART2.TxCollisionCallbackRegister	PTR FTN(PTR FTN()void ,)void  size(3) Largest target is 1
		 -> NULL(), 

    S341$RxCompleteCallbackRegister	PTR FTN(PTR FTN()void ,)void  size(3) Largest target is 1
		 -> NULL(), 

    UART2.RxCompleteCallbackRegister	PTR FTN(PTR FTN()void ,)void  size(3) Largest target is 1
		 -> NULL(), 

    S341$TxCompleteCallbackRegister	PTR FTN(PTR FTN()void ,)void  size(3) Largest target is 1
		 -> NULL(), 

    UART2.TxCompleteCallbackRegister	PTR FTN(PTR FTN()void ,)void  size(3) Largest target is 1
		 -> NULL(), 

    S341$ErrorGet	PTR FTN()unsigned int  size(3) Largest target is 2
		 -> EUSART2_ErrorGet(), 

    UART2.ErrorGet	PTR FTN()unsigned int  size(3) Largest target is 2
		 -> EUSART2_ErrorGet(), 

    S341$BaudRateGet	PTR FTN()unsigned long  size(3) Largest target is 1
		 -> NULL(), 

    UART2.BaudRateGet	PTR FTN()unsigned long  size(3) Largest target is 1
		 -> NULL(), 

    S341$BaudRateSet	PTR FTN(unsigned long ,)void  size(3) Largest target is 1
		 -> NULL(), 

    UART2.BaudRateSet	PTR FTN(unsigned long ,)void  size(3) Largest target is 1
		 -> NULL(), 

    S341$BRGCountGet	PTR FTN()unsigned long  size(3) Largest target is 1
		 -> NULL(), 

    UART2.BRGCountGet	PTR FTN()unsigned long  size(3) Largest target is 1
		 -> NULL(), 

    S341$BRGCountSet	PTR FTN(unsigned long ,)void  size(3) Largest target is 1
		 -> NULL(), 

    UART2.BRGCountSet	PTR FTN(unsigned long ,)void  size(3) Largest target is 1
		 -> NULL(), 

    S341$AutoBaudEventEnableGet	PTR FTN()_Bool  size(3) Largest target is 1
		 -> NULL(), 

    UART2.AutoBaudEventEnableGet	PTR FTN()_Bool  size(3) Largest target is 1
		 -> NULL(), 

    S341$AutoBaudQuery	PTR FTN()_Bool  size(3) Largest target is 1
		 -> EUSART2_AutoBaudQuery(), 

    UART2.AutoBaudQuery	PTR FTN()_Bool  size(3) Largest target is 1
		 -> EUSART2_AutoBaudQuery(), 

    S341$AutoBaudSet	PTR FTN(_Bool ,)void  size(3) Largest target is 1
		 -> EUSART2_AutoBaudSet(), 

    UART2.AutoBaudSet	PTR FTN(_Bool ,)void  size(3) Largest target is 1
		 -> EUSART2_AutoBaudSet(), 

    S341$TransmitDisable	PTR FTN()void  size(3) Largest target is 1
		 -> EUSART2_TransmitDisable(), 

    UART2.TransmitDisable	PTR FTN()void  size(3) Largest target is 1
		 -> EUSART2_TransmitDisable(), 

    S341$TransmitEnable	PTR FTN()void  size(3) Largest target is 1
		 -> EUSART2_TransmitEnable(), 

    UART2.TransmitEnable	PTR FTN()void  size(3) Largest target is 1
		 -> EUSART2_TransmitEnable(), 

    S341$IsTxDone	PTR FTN()_Bool  size(3) Largest target is 1
		 -> EUSART2_IsTxDone(), 

    UART2.IsTxDone	PTR FTN()_Bool  size(3) Largest target is 1
		 -> EUSART2_IsTxDone(), 

    S341$IsTxReady	PTR FTN()_Bool  size(3) Largest target is 1
		 -> EUSART2_IsTxReady(), 

    UART2.IsTxReady	PTR FTN()_Bool  size(3) Largest target is 1
		 -> EUSART2_IsTxReady(), 

    S341$IsRxReady	PTR FTN()_Bool  size(3) Largest target is 1
		 -> EUSART2_IsRxReady(), 

    UART2.IsRxReady	PTR FTN()_Bool  size(3) Largest target is 1
		 -> EUSART2_IsRxReady(), 

    S341$Write	PTR FTN(unsigned char ,)void  size(3) Largest target is 1
		 -> EUSART2_Write(), 

    UART2.Write	PTR FTN(unsigned char ,)void  size(3) Largest target is 1
		 -> EUSART2_Write(), 

    S341$Read	PTR FTN()unsigned char  size(3) Largest target is 1
		 -> EUSART2_Read(), 

    UART2.Read	PTR FTN()unsigned char  size(3) Largest target is 1
		 -> EUSART2_Read(), 

    S341$Deinitialize	PTR FTN()void  size(3) Largest target is 1
		 -> EUSART2_Deinitialize(), 

    UART2.Deinitialize	PTR FTN()void  size(3) Largest target is 1
		 -> EUSART2_Deinitialize(), 

    S341$Initialize	PTR FTN()void  size(3) Largest target is 1
		 -> EUSART2_Initialize(), 

    UART2.Initialize	PTR FTN()void  size(3) Largest target is 1
		 -> EUSART2_Initialize(), 

    HLVD_CallbackRegister@CallbackHandler	PTR FTN()void  size(3) Largest target is 1
		 -> HLVD_UserCallback(), HLVD_DefaultCallback(), 

    HLVD_Callback	PTR FTN()void  size(3) Largest target is 1
		 -> NULL(), HLVD_UserCallback(), HLVD_DefaultCallback(), 


Critical Paths under _main in COMRAM

    _main->_printf
    _printf->_vfprintf
    _vfprintf->_vfpfcnvrt
    _vfpfcnvrt->_fputc
    _fputc->_putch
    _putch->_EUSART2_IsTxReady
    _putch->_EUSART2_Write
    _INTERRUPT_Initialize->_INT0_SetInterruptHandler
    _INTERRUPT_Initialize->_INT1_SetInterruptHandler
    _INTERRUPT_Initialize->_INT2_SetInterruptHandler
    _HLVD_Initialize->_HLVD_CallbackRegister
    _EUSART2_Initialize->_EUSART2_FramingErrorCallbackRegister
    _EUSART2_Initialize->_EUSART2_OverrunErrorCallbackRegister

Critical Paths under _INTERRUPT_InterruptManager in COMRAM

    None.

Critical Paths under _main in BANK0

    None.

Critical Paths under _INTERRUPT_InterruptManager in BANK0

    None.

Critical Paths under _main in BANK1

    None.

Critical Paths under _INTERRUPT_InterruptManager in BANK1

    None.

Critical Paths under _main in BANK2

    None.

Critical Paths under _INTERRUPT_InterruptManager in BANK2

    None.

Critical Paths under _main in BANK3

    None.

Critical Paths under _INTERRUPT_InterruptManager in BANK3

    None.

Critical Paths under _main in BANK4

    None.

Critical Paths under _INTERRUPT_InterruptManager in BANK4

    None.

Critical Paths under _main in BANK5

    None.

Critical Paths under _INTERRUPT_InterruptManager in BANK5

    None.

Critical Paths under _main in BANK6

    None.

Critical Paths under _INTERRUPT_InterruptManager in BANK6

    None.

Critical Paths under _main in BANK7

    None.

Critical Paths under _INTERRUPT_InterruptManager in BANK7

    None.

Critical Paths under _main in BANK8

    None.

Critical Paths under _INTERRUPT_InterruptManager in BANK8

    None.

Critical Paths under _main in BANK9

    None.

Critical Paths under _INTERRUPT_InterruptManager in BANK9

    None.

Critical Paths under _main in BANK10

    None.

Critical Paths under _INTERRUPT_InterruptManager in BANK10

    None.

Critical Paths under _main in BANK11

    None.

Critical Paths under _INTERRUPT_InterruptManager in BANK11

    None.

Critical Paths under _main in BANK12

    None.

Critical Paths under _INTERRUPT_InterruptManager in BANK12

    None.

Critical Paths under _main in BANK14

    None.

Critical Paths under _INTERRUPT_InterruptManager in BANK14

    None.

Call Graph Tables:

 ---------------------------------------------------------------------------------
 (Depth) Function   	        Calls       Base Space   Used Autos Params    Refs
 ---------------------------------------------------------------------------------
 (0) _main                                                 0     0      0    3386
              _HLVD_CallbackRegister
               _HLVD_OutputStatusGet
                _HLVD_TripPointSetup
                  _SYSTEM_Initialize
                             _printf
 ---------------------------------------------------------------------------------
 (1) _printf                                               6     4      2    2134
                                             27 COMRAM     4     2      2
                           _vfprintf
 ---------------------------------------------------------------------------------
 (2) _vfprintf                                             8     2      6    1398
                                             19 COMRAM     8     2      6
                          _vfpfcnvrt
 ---------------------------------------------------------------------------------
 (3) _vfpfcnvrt                                           18    12      6    1051
                                             13 COMRAM     6     0      6
                              _fputc
 ---------------------------------------------------------------------------------
 (4) _fputc                                                9     5      4     691
                                              4 COMRAM     9     5      4
                              _putch
 ---------------------------------------------------------------------------------
 (5) _putch                                                1     1      0      61
                                              3 COMRAM     1     1      0
                  _EUSART2_IsTxReady
                      _EUSART2_Write
 ---------------------------------------------------------------------------------
 (6) _EUSART2_Write                                        1     1      0      15
                                              2 COMRAM     1     1      0
 ---------------------------------------------------------------------------------
 (6) _EUSART2_IsTxReady                                    1     1      0      24
                                              2 COMRAM     1     1      0
 ---------------------------------------------------------------------------------
 (1) _SYSTEM_Initialize                                    0     0      0     708
                   _CLOCK_Initialize
                 _EUSART2_Initialize
                    _HLVD_Initialize
               _INTERRUPT_Initialize
             _PIN_MANAGER_Initialize
 ---------------------------------------------------------------------------------
 (2) _PIN_MANAGER_Initialize                               0     0      0       0
 ---------------------------------------------------------------------------------
 (2) _INTERRUPT_Initialize                                 0     0      0     294
           _INT0_SetInterruptHandler
           _INT1_SetInterruptHandler
           _INT2_SetInterruptHandler
 ---------------------------------------------------------------------------------
 (3) _INT2_SetInterruptHandler                             3     0      3      98
                                              2 COMRAM     3     0      3
 ---------------------------------------------------------------------------------
 (3) _INT1_SetInterruptHandler                             3     0      3      98
                                              2 COMRAM     3     0      3
 ---------------------------------------------------------------------------------
 (3) _INT0_SetInterruptHandler                             3     0      3      98
                                              2 COMRAM     3     0      3
 ---------------------------------------------------------------------------------
 (2) _HLVD_Initialize                                      0     0      0     174
              _HLVD_CallbackRegister
 ---------------------------------------------------------------------------------
 (3) _HLVD_CallbackRegister                                3     0      3     174
                                              2 COMRAM     3     0      3
 ---------------------------------------------------------------------------------
 (2) _EUSART2_Initialize                                   0     0      0     240
_EUSART2_FramingErrorCallbackRegiste
_EUSART2_OverrunErrorCallbackRegiste
 ---------------------------------------------------------------------------------
 (3) _EUSART2_OverrunErrorCallbackRegister                 3     0      3     120
                                              2 COMRAM     3     0      3
 ---------------------------------------------------------------------------------
 (3) _EUSART2_FramingErrorCallbackRegister                 3     0      3     120
                                              2 COMRAM     3     0      3
 ---------------------------------------------------------------------------------
 (2) _CLOCK_Initialize                                     0     0      0       0
 ---------------------------------------------------------------------------------
 (1) _HLVD_TripPointSetup                                  3     1      2     370
                                              2 COMRAM     3     1      2
 ---------------------------------------------------------------------------------
 (1) _HLVD_OutputStatusGet                                 0     0      0       0
 ---------------------------------------------------------------------------------
 Estimated maximum stack depth 6
 ---------------------------------------------------------------------------------
 (Depth) Function   	        Calls       Base Space   Used Autos Params    Refs
 ---------------------------------------------------------------------------------
 (7) _INTERRUPT_InterruptManager                           2     2      0       0
                                              0 COMRAM     2     2      0
                           _HLVD_ISR
                    _PIN_MANAGER_IOC
 ---------------------------------------------------------------------------------
 (8) _PIN_MANAGER_IOC                                      0     0      0       0
 ---------------------------------------------------------------------------------
 (8) _HLVD_ISR                                             0     0      0       0
                                NULL *
               _HLVD_DefaultCallback *
                  _HLVD_UserCallback *
 ---------------------------------------------------------------------------------
 (9) _HLVD_UserCallback                                    0     0      0       0
 ---------------------------------------------------------------------------------
 (9) _HLVD_DefaultCallback                                 0     0      0       0
 ---------------------------------------------------------------------------------
 (9) NULL(Fake)                                            0     0      0       0
 ---------------------------------------------------------------------------------
 Estimated maximum stack depth 9
 ---------------------------------------------------------------------------------

 Call Graph Graphs:

 _main (ROOT)
   _HLVD_CallbackRegister
   _HLVD_OutputStatusGet
   _HLVD_TripPointSetup
   _SYSTEM_Initialize
     _CLOCK_Initialize
     _EUSART2_Initialize
       _EUSART2_FramingErrorCallbackRegister
       _EUSART2_OverrunErrorCallbackRegister
     _HLVD_Initialize
       _HLVD_CallbackRegister
     _INTERRUPT_Initialize
       _INT0_SetInterruptHandler
       _INT1_SetInterruptHandler
       _INT2_SetInterruptHandler
     _PIN_MANAGER_Initialize
   _printf
     _vfprintf
       _vfpfcnvrt
         _fputc
           _putch
             _EUSART2_IsTxReady
             _EUSART2_Write

 _INTERRUPT_InterruptManager (ROOT)
   _HLVD_ISR
     NULL(Fake) *
     _HLVD_DefaultCallback *
     _HLVD_UserCallback *
   _PIN_MANAGER_IOC

 Address spaces:
Name               Size   Autos  Total    Cost      Usage
BIGRAM             CFF      0       0      49        0.0%
EEDATA             400      0       0       0        0.0%
BITBIGSFR          100      0       0      47        0.0%
BITBANK12          100      0       0      28        0.0%
BANK12             100      0       0      29        0.0%
BITBANK11          100      0       0      26        0.0%
BANK11             100      0       0      27        0.0%
BITBANK10          100      0       0      24        0.0%
BANK10             100      0       0      25        0.0%
BITBANK9           100      0       0      22        0.0%
BANK9              100      0       0      23        0.0%
BITBANK8           100      0       0      20        0.0%
BANK8              100      0       0      21        0.0%
BITBANK7           100      0       0      18        0.0%
BANK7              100      0       0      19        0.0%
BITBANK6           100      0       0      16        0.0%
BANK6              100      0       0      17        0.0%
BITBANK5           100      0       0      14        0.0%
BANK5              100      0       0      15        0.0%
BITBANK4           100      0       0      12        0.0%
BANK4              100      0       0      13        0.0%
BITBANK3           100      0       0      10        0.0%
BANK3              100      0       0      11        0.0%
BITBANK2           100      0       0       8        0.0%
BANK2              100      0       0       9        0.0%
BITBANK1           100      0       0       6        0.0%
BANK1              100      0       0       7        0.0%
BITBANK0            A0      0       0       4        0.0%
BANK0               A0      0       0       5        0.0%
BITBIGSFR_1lll      69      0       0      45        0.0%
BITBIGSFR_1hl       66      0       0      33        0.0%
BITCOMRAM           5E      0       0       0        0.0%
COMRAM              5E     1F      5B       1       96.8%
BITBIGSFR_1lhhh     56      0       0      34        0.0%
BITBIGSFR_1llhl     22      0       0      43        0.0%
BITBIGSFR_1llhl     20      0       0      36        0.0%
BITBANK14           1F      0       0      30        0.0%
BANK14              1F      0       0      31        0.0%
BIGRAM_1            1F      0       0      46        0.0%
BITBIGSFR_1hh        D      0       0      32        0.0%
BITBIGSFR_1llhl      B      0       0      44        0.0%
BITBIGSFR_1llhl      A      0       0      39        0.0%
BITBIGSFR_1llhh      A      0       0      35        0.0%
BITBIGSFR_1llhl      5      0       0      41        0.0%
BITBIGSFR_1llhl      1      0       0      37        0.0%
BITBIGSFR_1llhl      1      0       0      38        0.0%
BITBIGSFR_1llhl      1      0       0      42        0.0%
BITBIGSFR_1llhl      1      0       0      40        0.0%
BIGSFR_1             0      0       0     200        0.0%
BIGSFR               0      0       0     200        0.0%
BITSFR_3             0      0       0     200        0.0%
SFR_3                0      0       0     200        0.0%
BITSFR_2             0      0       0     200        0.0%
SFR_2                0      0       0     200        0.0%
BITSFR_1             0      0       0     200        0.0%
SFR_1                0      0       0     200        0.0%
BITSFR               0      0       0     200        0.0%
SFR                  0      0       0     200        0.0%
STACK                0      0       0       2        0.0%
NULL                 0      0       0       0        0.0%
ABS                  0      0      5B      48        0.0%
DATA                 0      0      5B       3        0.0%
CODE                 0      0       0       0        0.0%


Microchip Technology PIC18 Macro Assembler V2.41 build 20230208172133 
Symbol Table                                                                                   Tue Apr 18 10:16:15 2023

                              ??_HLVD_TripPointSetup 003F                                                  l101 027E  
                                                l123 047C                                                  l300 0432  
                                                l301 0434                                                  l135 04E2  
                                                l144 059C                                                  l138 0564  
                                                l252 03DC                                                  l180 00F2  
                                                l405 058E                                                  l317 05A4  
                                                l343 049E                                                  l431 0572  
                                                l175 0052                                                  l329 0520  
                                                l418 0580                                                  l339 04C0  
                                                l460 0538                                                  l447 054E  
                                                l384 039C                                                  u140 0562  
                                                u141 055C                                                  u400 042E  
                                                u401 042A                                                  u146 0564  
                                                u410 051A                                                  u411 0516  
                                                u420 0116                                                  u421 0112  
                                                u430 0128                                                  u431 0124  
                                                u440 0150                                                  u520 004C  
                                                u505 04CE                                                  u441 014C  
                                                u521 0048                                                  u506 04D2  
                                                u450 0186                                                  u530 006E  
                                                u515 04DA                                                  u451 0182  
                                                u531 006A                                                  u516 04DE  
                                                u460 04B4                                                  u540 00F2  
                                                u461 04B0                                                  u541 00EE  
                                                u470 0492                                                  u390 0420  
                                                u471 048E                                                  u391 041C  
                                                u480 02A8                                                  u481 02A4  
                                                u490 034E                                                  u491 034A  
                         ??_INT0_SetInterruptHandler 0040              fp__EUSART2_FramingErrorCallbackRegister 0000  
       __end_of_EUSART2_FramingErrorCallbackRegister 04C2               ??_EUSART2_FramingErrorCallbackRegister 0040  
              ?_EUSART2_FramingErrorCallbackRegister 003D                 _EUSART2_FramingErrorCallbackRegister 04A0  
                                                tosl 0FFD                                                  wreg 0FE8  
                       __end_of_HLVD_OutputStatusGet 0566                                         _BAUD2CONbits 0E9A  
                                               l1205 05A0                                                 l1141 045A  
                                               l1173 0356                                                 l1319 0522  
                                               l1271 01F0                                                 l1263 01CE  
                                               l1167 0304                                                 l1337 0550  
                                               l1601 0360                                                 l1281 0230  
                                               l1273 01F8                                                 l1265 01E2  
                                               l1521 0410                                                 l1185 01CC  
                                               l1603 0370                                                 l1283 0236  
                                               l1275 022A                                                 l1267 01E4  
                                               l1523 0420                                                 l1531 0506  
                                               l1611 0306                                                 l1621 04C4  
                                               l1605 0374                                                 l1285 0238  
                                               l1277 022C                                                 l1269 01E6  
                                               l1525 042E                                                 l1533 051A  
                                               l1541 0128                                                 l1613 0312  
                                               l1623 04D2                                                 l1551 0590  
                                               l1607 0386                                                 l1287 023A  
                                               l1279 022E                                                 l1631 0546  
                                               l1519 040C                                                 l1543 0132  
                                               l1615 032E                                                 l1625 04DE  
                                               l1553 04A0                                                 l1561 0582  
                                               l1609 038A                                                 l1289 023C  
                                               l1633 054A                                                 l1529 0506  
                                               l1545 0150                                                 l1537 0104  
                                               l1617 034E                                                 l1641 0000  
                                               l1555 04B4                                                 l1563 0574  
                                               l1627 053A                                                 l1547 0186  
                                               l1539 0116                                                 l1571 02B6  
                                               l1635 0436                                                 l1651 0030  
                                               l1643 0004                                                 l1557 047E  
                                               l1565 0566                                                 l1629 0542  
                                               l1573 02C2                                                 l1637 043E  
                                               l1661 006E                                                 l1653 003C  
                                               l1645 0006                                                 l1559 0492  
                                               l1591 047A                                                 l1575 02C6  
                                               l1567 0280                                                 l1671 00B0  
                                               l1663 007A                                                 l1655 004C  
                                               l1647 0018                                                 l1593 039E  
                                               l1585 045C                                                 l1569 02A8  
                                               l1681 00F4                                                 l1673 00BE  
                                               l1665 0088                                                 l1657 0050  
                                               l1649 0024                                                 l1595 03B4  
                                               l1587 0466                                                 l1579 02D8  
                                               l1675 00CA                                                 l1667 0094  
                                               l1659 005A                                                 l1597 03C4  
                                               l1589 0476                                                 l1669 00A4  
                                               l1677 00DA                                                 l1599 0358  
                                               l1679 00E0                                                 STR_1 FF20  
                                               STR_2 FFE6                                                 STR_3 FEC2  
                                               STR_4 FF52                                                 STR_5 FFCA  
                                               STR_6 FE61                                                 STR_7 FF80  
                                               STR_8 FFAE                                                 STR_9 FEC2  
                                               _LATA 0F82                                                 _LATB 0F83  
                                               _LATC 0F84                                                 _LATD 0F85  
                                               _LATE 0F86                                                 _WPUA 0F0B  
                                               _WPUB 0F13                                                 _WPUC 0F1B  
                                               _WPUD 0F20                                                 _WPUE 0F28  
                                      _EUSART2_Write 059E                                                 _dbuf 0001  
                                               _main 0000                                                 _prec 0035  
                                               fsr1h 0FE2                                                 fsr2h 0FDA  
                                               indf2 0FDF                                                 fsr1l 0FE1  
                                               fsr2l 0FD9                                                 btemp 005C  
                          ?_INT2_SetInterruptHandler 003D                                                 start 0076  
                                       ___param_bank 0000                                     __end_of_HLVD_ISR 0504  
                                              ?_main 003B                                                _IOCAF 0F05  
                                              _IOCBF 0F0D                                                _IOCCF 0F15  
                                              _IOCAN 0F06                                                _IOCEF 0F22  
                                              _IOCAP 0F07                                                _IOCBN 0F0E  
                                              _IOCBP 0F0F                                                _IOCCN 0F16  
                                              _IOCCP 0F17                                                _IOCEN 0F23  
                                              _IOCEP 0F24                                                i2l104 05AE  
                                              i2l141 0502                                                i2l147 05B0  
                                              i2l187 05AA                                                i2l394 006A  
                                              i2l395 006A                                                i2l389 0038  
                                              _OSCEN 0ED7                                                _UART2 FE19  
                                       vfpfcnvrt@fmt 004A                                                _TRISA 0F87  
                                              _TRISB 0F88                                                _TRISC 0F89  
                                              _TRISD 0F8A                                                _TRISE 0F8B  
                                      _HLVD_Callback 0030                              __end_of_PIN_MANAGER_IOC 05B0  
                                              _flags 0039                                                _fputc 0104  
                                              _width 0033                                                _putch 0504  
                           _INT1_SetInterruptHandler 0574                                       ?_EUSART2_Write 003B  
                                              pclath 0FFA                                                pclatu 0FFB  
                                              tablat 0FF5                                                ttemp5 005D  
                                              ttemp6 0060                                                ttemp7 0064  
                                              status 0FD8                                                wtemp8 005D  
                                    __initialization 03DE                                         __end_of_main 0104  
                               fp__EUSART2_IsTxReady 0000                          ?_INTERRUPT_InterruptManager 003B  
                                             ??_main 005A                                        __activetblptr 0003  
            fp__EUSART2_OverrunErrorCallbackRegister 0000         __end_of_EUSART2_OverrunErrorCallbackRegister 04A0  
             ??_EUSART2_OverrunErrorCallbackRegister 0040                ?_EUSART2_OverrunErrorCallbackRegister 003D  
               _EUSART2_OverrunErrorCallbackRegister 047E  EUSART2_OverrunErrorCallbackRegister@callbackHandler 003D  
EUSART2_FramingErrorCallbackRegister@callbackHandler 003D                           __end_of_EUSART2_Initialize 03DE  
                                             ?_fputc 003F                     HLVD_TripPointSetup@Positive_Trip 003D  
                                             _ANSELA 0F0C                                               ?_putch 003B  
                                             _ANSELB 0F14                                               _ANSELC 0F1C  
                                             _ANSELD 0F21                                               _ANSELE 0F29  
                                             _RC2REG 0E94                                               _RD0PPS 0EFA  
                                             _RC2STA 0E98                                               _ODCONA 0F0A  
                                             _ODCONB 0F12                                               _ODCONC 0F1A  
                                             _ODCOND 0F1F                                               _ODCONE 0F27  
                                             i2l1341 04E4                                               i2l1343 04E8  
                                             i2l1299 05A6                                               i2l1491 0054  
                                             i2l1483 0012                                               i2l1493 0062  
                                             i2l1485 0022                                               i2l1487 0030  
                                             i2l1489 0046                                               _INLVLA 0F08  
                                             _INLVLB 0F10                                               _INLVLC 0F18  
                                             _INLVLD 0F1D                                               _INLVLE 0F25  
                                             _OSCFRQ 0ED9                                               _RX2PPS 0E88  
                                             _TX2REG 0E95                                               _TX2STA 0E99  
                     HLVD_TripPointSetup@trip_points 003E                                         vfprintf@cfmt 0054  
                               _HLVD_OutputStatusGet 0550                                               clear_0 03FC  
                                             isa$std 0001                          _EUSART2_FramingErrorHandler 002D  
                                             _printf 0436                                    ?_CLOCK_Initialize 003B  
                                             fputc@c 003F                         _INT2_DefaultInterruptHandler 0000  
                                       __pdataCOMRAM 005A                                   ??_CLOCK_Initialize 003D  
                                       __mediumconst FE18                                _HLVD_CallbackRegister 0590  
                                             tblptrh 0FF7                                               tblptrl 0FF6  
                                             tblptru 0FF8                                     __end_of_vfprintf 0358  
                                    ??_EUSART2_Write 003D             INT2_SetInterruptHandler@InterruptHandler 003D  
           INT1_SetInterruptHandler@InterruptHandler 003D             INT0_SetInterruptHandler@InterruptHandler 003D  
                                   ?_PIN_MANAGER_IOC 003B                                    _SYSTEM_Initialize 053A  
                                         __accesstop 0060                              __end_of__initialization 0402  
                                          ?_HLVD_ISR 003B                                   ?_SYSTEM_Initialize 003B  
                                      ___rparam_used 0001                                        __end_of_UART2 FE61  
                                     __pcstackCOMRAM 003B                                  ??_SYSTEM_Initialize 0040  
                              ?_HLVD_OutputStatusGet 003B                                        __end_of_fputc 01CE  
                                      __end_of_putch 0522                                    ??_HLVD_Initialize 0040  
                _EUSART2_DefaultFramingErrorCallback 0000                     __end_of_INT2_SetInterruptHandler 0574  
                                            ??_fputc 0043                            __end_of_SYSTEM_Initialize 0550  
                                            ??_putch 003E                                fp__EUSART2_Initialize 0000  
                              _INT0_InterruptHandler 0027                                           ??_HLVD_ISR 003B  
                        __end_of_HLVD_TripPointSetup 04E4                                              ?_printf 0056  
                                   _EUSART2_IsTxDone 0000                           ??_INT1_SetInterruptHandler 0040  
                             ?_HLVD_CallbackRegister 003D                                              _SP2BRGH 0E97  
                                            _SP2BRGL 0E96                                     _EUSART2_ErrorGet 0000  
                                            _OSCCON1 0ED3                                              _OSCCON3 0ED5  
                                            i2u30_40 0046                                              i2u30_41 0042  
                                            i2u31_40 0054                                              i2u31_41 0050  
                                            i2u15_48 04EE                                              i2u32_40 0062  
                                            i2u15_49 0502                                              i2u32_41 005E  
                                            i2u28_40 0022                                              i2u28_41 001E  
                                            i2u29_40 0030                                              i2u29_41 002C  
                                            _OSCTUNE 0ED8                                              _SLRCONA 0F09  
                                            _SLRCONB 0F11                                              _SLRCONC 0F19  
                                            _SLRCOND 0F1E                                              _SLRCONE 0F26  
                              _EUSART2_AutoBaudQuery 0000                            ?_INT0_SetInterruptHandler 003D  
                                            __Hparam 0000                                              __Lparam 0000  
                       __end_of_HLVD_DefaultCallback 05B2                               ??_HLVD_OutputStatusGet 003D  
                                          ?_vfprintf 004E                                              __pcinit 03DE  
                                            __ramtop 1000                                              __ptext0 0000  
                                            __ptext1 0436                                              __ptext2 0306  
                                            __ptext3 0280                                              __ptext4 0104  
                                            __ptext5 0504                                              __ptext6 059E  
                                            __ptext7 040C                                              __ptext8 053A  
                                            __ptext9 01CE                  _EUSART2_DefaultOverrunErrorCallback 0000  
                   HLVD_TripPointSetup@Negative_Trip 003F                             ??_PIN_MANAGER_Initialize 003D  
                               end_of_initialization 0402                             _INT2_SetInterruptHandler 0566  
                              _EUSART2_IsTxReady$721 003D                                              fputc@fp 0041  
                                  _HLVD_UserCallback 05A6                                   _EUSART2_Initialize 039E  
                                  __end_of_vfpfcnvrt 0306                                   ?_HLVD_UserCallback 003B  
                                            postdec2 0FDD                                              postinc0 0FEE  
                                            postinc1 0FE6                                              postinc2 0FDE  
                                         ??_vfprintf 0054                                         _HLVDCON0bits 0F2A  
                                ?_EUSART2_Initialize 003B                                  ??_HLVD_UserCallback 003B  
                              _INT1_InterruptHandler 0024                 HLVD_CallbackRegister@CallbackHandler 003D  
                               ??_EUSART2_Initialize 0040                            __end_of_HLVD_UserCallback 05AC  
                                       _EUSART2_Read 0000                                      _HLVD_Initialize 045C  
                               _EUSART2_Deinitialize 0000                         __end_of_INTERRUPT_Initialize 039E  
                       _INT0_DefaultInterruptHandler 0000                                          vfpfcnvrt@ap 004C  
                                        vfpfcnvrt@fp 0048                                        __pidataCOMRAM 05AC  
                                     __end_of_printf 045C                                  start_initialization 03DE  
                               _HLVD_DefaultCallback 05B0                                          putch@txData 003E  
                              __end_of_EUSART2_Write 05A6                                          vfprintf@fmt 0050  
                            ??_HLVD_CallbackRegister 0040                                             ??_printf 0058  
                                        __pbssCOMRAM 0001                     __end_of_INT0_SetInterruptHandler 0590  
                              ?_HLVD_DefaultCallback 003B                              __end_of_HLVD_Initialize 047E  
                                EUSART2_Write@txData 003D                                _INT2_InterruptHandler 0021  
                             _PIN_MANAGER_Initialize 01CE                                            __pintcode 0008  
                                      __pmediumconst FE18                         ??_INTERRUPT_InterruptManager 003B  
                                           _BAUD2CON 0E9A                           ??_INT2_SetInterruptHandler 0040  
                               _INTERRUPT_Initialize 0358                                    _EUSART2_IsRxReady 0000  
                                  _EUSART2_IsTxReady 040C                                     _CLOCK_Initialize 0522  
                                           _HLVDCON0 0F2A                                             _HLVDCON1 0F2B  
                                           _HLVD_ISR 04E4                                             _LATEbits 0F86  
                          ?_INT1_SetInterruptHandler 003D                                   ?_EUSART2_IsTxReady 003B  
                                           _PIE0bits 0EBD                                             _PIE2bits 0EBF  
                                           _PIR0bits 0EC5                                             _PIR2bits 0EC7  
                                           _PIR3bits 0EC8                                  ??_EUSART2_IsTxReady 003D  
                                  ??_PIN_MANAGER_IOC 003B                                            _vfpfcnvrt 0280  
                             ??_HLVD_DefaultCallback 003B                            __end_of_EUSART2_IsTxReady 0436  
                                   ?_HLVD_Initialize 003B                                ?_INTERRUPT_Initialize 003B  
                           _INT0_SetInterruptHandler 0582                          _EUSART2_OverrunErrorHandler 002A  
                                        _hlvdIntFlag 003A                                             __Hrparam 0000  
                                         vfprintf@ap 0052                                             __Lrparam 0000  
                                         vfprintf@fp 004E                                           ?_vfpfcnvrt 0048  
                                           __ptext10 0358                                             __ptext11 0566  
                                           __ptext20 04C2                                             __ptext12 0574  
                                           __ptext21 0550                                             __ptext13 0582  
                                           __ptext14 045C                                             __ptext23 05AE  
                                           __ptext15 0590                                             __ptext24 04E4  
                                           __ptext16 039E                                             __ptext25 05B0  
                                           __ptext17 047E                                             __ptext26 05A6  
                                           __ptext18 04A0                                             __ptext27 0000  
                                           __ptext19 0522                                  _EUSART2_AutoBaudSet 0000  
                                         _RC2STAbits 0E98                                             isa$xinst 0000  
                            _EUSART2_TransmitDisable 0000                                             int$flags 005C  
                                           _vfprintf 0306                   __end_of_INTERRUPT_InterruptManager 0076  
                         _INTERRUPT_InterruptManager 0008                                            printf@fmt 0056  
                       _INT1_DefaultInterruptHandler 0000                                 fp__HLVD_UserCallback 0000  
                      __end_of_HLVD_CallbackRegister 059E                                           _INTCONbits 0FF2  
                             ??_INTERRUPT_Initialize 0040                                          _wait4ledCnt 005A  
                                           intlevel2 0000                                  _HLVD_TripPointSetup 04C2  
                            ?_PIN_MANAGER_Initialize 003B                               _EUSART2_TransmitEnable 0000  
                                           printf@ap 0058                                 ?_HLVD_TripPointSetup 003D  
                                        ??_vfpfcnvrt 004E                             __end_of_CLOCK_Initialize 053A  
                                   fp__EUSART2_Write 0000                     __end_of_INT1_SetInterruptHandler 0582  
                            fp__HLVD_DefaultCallback 0000                                           _TX2STAbits 0E99  
                     __end_of_PIN_MANAGER_Initialize 0280                                   _eusart2RxLastError 0037  
                                    _PIN_MANAGER_IOC 05AE  
